libajantv2.so.17.0.1.0:_Z10CopyRaster21NTV2FrameBufferFormatPhjtttPKhjttttt
libajantv2.so.17.0.1.0:_Z10CreateGuidB5cxx11v
libajantv2.so.17.0.1.0:_Z10Is2KFormat16_NTV2VideoFormat
libajantv2.so.17.0.1.0:_Z10Is4KFormat16_NTV2VideoFormat
libajantv2.so.17.0.1.0:_Z10Is8KFormat16_NTV2VideoFormat
libajantv2.so.17.0.1.0:_Z10aja_procfsB5cxx11PKcS0_
libajantv2.so.17.0.1.0:_Z10aja_uptimeB5cxx11v
libajantv2.so.17.0.1.0:_Z11IsRGBFormat21NTV2FrameBufferFormat
libajantv2.so.17.0.1.0:_Z11NTV2GitHashB5cxx11v
libajantv2.so.17.0.1.0:_Z11NTV2VersionB5cxx11b
libajantv2.so.17.0.1.0:_Z11ToRegNumSetRKSt6vectorI11NTV2RegInfoSaIS0_EE
libajantv2.so.17.0.1.0:_Z11displayArgsP13poptContext_s18poptCallbackReasonP10poptOptionPKcPv
libajantv2.so.17.0.1.0:_Z11dpx_get_r32PKfb
libajantv2.so.17.0.1.0:_Z11dpx_get_u16PKtb
libajantv2.so.17.0.1.0:_Z11dpx_get_u32PKjb
libajantv2.so.17.0.1.0:_Z11dpx_set_r32Pfbf
libajantv2.so.17.0.1.0:_Z11dpx_set_u16Ptbt
libajantv2.so.17.0.1.0:_Z11dpx_set_u32Pjbj
libajantv2.so.17.0.1.0:_Z12AddAudioTonePjRjjdPKdS2_jbj
libajantv2.so.17.0.1.0:_Z12AddAudioTonePjRjjdddjbj
libajantv2.so.17.0.1.0:_Z12AddAudioTonePtRjjdddjbj
libajantv2.so.17.0.1.0:_Z12AddAudioToneRjR10NTV2BufferS_jdddjbj
libajantv2.so.17.0.1.0:_Z12Make8BitLinePhhhhj21NTV2FrameBufferFormat
libajantv2.so.17.0.1.0:_Z12POPT_fprintfP8_IO_FILEPKcz
libajantv2.so.17.0.1.0:_Z12ReSampleLineP13RGBAlphaPixelS0_ttii
libajantv2.so.17.0.1.0:_Z12ReSampleLinePsS_ttii
libajantv2.so.17.0.1.0:_Z13FromRegNumSetRKSt3setIjSt4lessIjESaIjEE
libajantv2.so.17.0.1.0:_Z13IsYCbCrFormat21NTV2FrameBufferFormat
libajantv2.so.17.0.1.0:_Z13Make10BitLinePttttj
libajantv2.so.17.0.1.0:_Z13MaskYCbCrLinePttj
libajantv2.so.17.0.1.0:_Z13PercentDecodeRKNSt7__cxx1112basic_stringIcSt11char_traitsIcESaIcEEE
libajantv2.so.17.0.1.0:_Z13PercentEncodeRKNSt7__cxx1112basic_stringIcSt11char_traitsIcESaIcEEE
libajantv2.so.17.0.1.0:_Z13ReSampleAudioPsS_ttiis
libajantv2.so.17.0.1.0:_Z13aja_osversionB5cxx11v
libajantv2.so.17.0.1.0:_Z13strncpyasutf8PcPKci
libajantv2.so.17.0.1.0:_Z14CopyToQuadrantPhjjjS_j
libajantv2.so.17.0.1.0:_Z14IsVideoFormatA16_NTV2VideoFormat
libajantv2.so.17.0.1.0:_Z14IsVideoFormatB16_NTV2VideoFormat
libajantv2.so.17.0.1.0:_Z14POPT_next_charPKc
libajantv2.so.17.0.1.0:_Z14POPT_prev_charPKc
libajantv2.so.17.0.1.0:_Z14StackQuadrantsPhjjjS_
libajantv2.so.17.0.1.0:_Z14aja_getgputypeB5cxx11v
libajantv2.so.17.0.1.0:_Z14poptJlu32lpairPKvmPjS1_
libajantv2.so.17.0.1.0:_Z15GetDisplayWidth16_NTV2VideoFormat
libajantv2.so.17.0.1.0:_Z15RecordCopyAudioPjS_iiiib
libajantv2.so.17.0.1.0:_Z15SetVPIDFromSpecPjPK8VPIDSpec
libajantv2.so.17.0.1.0:_Z15aja_productnameB5cxx11v
libajantv2.so.17.0.1.0:_Z16AJA_ReSampleLineP17AJA_RGBAlphaPixelS0_ttii
libajantv2.so.17.0.1.0:_Z16AJA_ReSampleLinePsS_ttii
libajantv2.so.17.0.1.0:_Z16ConvertARGBToBGRPKhPhj
libajantv2.so.17.0.1.0:_Z16ConvertARGBToRGBPhS_j
libajantv2.so.17.0.1.0:_Z16ConvertLinetoRGBPhP13RGBAlphaPixeljbb
libajantv2.so.17.0.1.0:_Z16ConvertLinetoRGBPtP13RGBAlphaPixeljbbb
libajantv2.so.17.0.1.0:_Z16CopyFromQuadrantPhjjjS_j
libajantv2.so.17.0.1.0:_Z16GetDisplayHeight16_NTV2VideoFormat
libajantv2.so.17.0.1.0:_Z16GetRegNumChangesRKSt3setIjSt4lessIjESaIjEES5_RS3_S6_S6_
libajantv2.so.17.0.1.0:_Z16NTV2DeviceHasNWL12NTV2DeviceID
libajantv2.so.17.0.1.0:_Z16NTV2DeviceString12NTV2DeviceID
libajantv2.so.17.0.1.0:_Z16NTV2GitHashShortB5cxx11v
libajantv2.so.17.0.1.0:_Z16NTV2ModeToStringB5cxx118NTV2Modeb
libajantv2.so.17.0.1.0:_Z16backup_pref_fileRKNSt7__cxx1112basic_stringIcSt11char_traitsIcESaIcEEEb
libajantv2.so.17.0.1.0:_Z16createVideoFramePjm15AJA_PixelFormatjjjttt
libajantv2.so.17.0.1.0:_Z16is_pthread_alivem
libajantv2.so.17.0.1.0:_Z17AJAStatusToStringB5cxx119AJAStatusb
libajantv2.so.17.0.1.0:_Z17AJA_ReSampleAudioPsS_ttiis
libajantv2.so.17.0.1.0:_Z17GetConversionMode16_NTV2VideoFormatS_
libajantv2.so.17.0.1.0:_Z17GetVideoWriteSize16_NTV2VideoFormat21NTV2FrameBufferFormat12NTV2VANCMode
libajantv2.so.17.0.1.0:_Z17HasVANCGeometries17NTV2FrameGeometry
libajantv2.so.17.0.1.0:_Z17Make8BitBlackLinePhj21NTV2FrameBufferFormat
libajantv2.so.17.0.1.0:_Z17Make8BitWhiteLinePhj21NTV2FrameBufferFormat
libajantv2.so.17.0.1.0:_Z17NTV2DeviceCanDoIP12NTV2DeviceID
libajantv2.so.17.0.1.0:_Z17NTV2DeviceIs64Bit12NTV2DeviceID
libajantv2.so.17.0.1.0:_Z17WriteLineToBuffer15AJA_PixelFormat19AJA_BayerColorPhasejjjPhPj
libajantv2.so.17.0.1.0:_Z17WriteLineToBuffer15AJA_PixelFormatjjjPhPj
libajantv2.so.17.0.1.0:_Z18Get4xSizedGeometry17NTV2FrameGeometry
libajantv2.so.17.0.1.0:_Z18Get4xSizedStandard12NTV2Standardb
libajantv2.so.17.0.1.0:_Z18GetFrameRateFamily13NTV2FrameRate
libajantv2.so.17.0.1.0:_Z18GetFramesPerSecond13NTV2FrameRate
libajantv2.so.17.0.1.0:_Z18GetFramesPerSecond13NTV2FrameRateRjS0_
libajantv2.so.17.0.1.0:_Z18GetMixerBGInputXpt11NTV2Channelb
libajantv2.so.17.0.1.0:_Z18GetMixerFGInputXpt11NTV2Channelb
libajantv2.so.17.0.1.0:_Z18GetRegisterNumbersRKSt6vectorI11NTV2RegInfoSaIS0_EE
libajantv2.so.17.0.1.0:_Z18GetVideoActiveSize16_NTV2VideoFormat21NTV2FrameBufferFormat12NTV2VANCMode
libajantv2.so.17.0.1.0:_Z18Make10BitBlackLinePtj
libajantv2.so.17.0.1.0:_Z18Make10BitWhiteLinePtj
libajantv2.so.17.0.1.0:_Z18NTV2DeviceCanDoHDV12NTV2DeviceID
libajantv2.so.17.0.1.0:_Z18NTV2DeviceCanDoJ2K12NTV2DeviceID
libajantv2.so.17.0.1.0:_Z18NTV2DeviceCanDoLTC12NTV2DeviceID
libajantv2.so.17.0.1.0:_Z18NTV2DeviceCanDoMSI12NTV2DeviceID
libajantv2.so.17.0.1.0:_Z18NTV2DeviceCanDoPIO12NTV2DeviceID
libajantv2.so.17.0.1.0:_Z18NTV2DeviceHasSPIv212NTV2DeviceID
libajantv2.so.17.0.1.0:_Z18NTV2DeviceHasSPIv312NTV2DeviceID
libajantv2.so.17.0.1.0:_Z18NTV2DeviceHasSPIv412NTV2DeviceID
libajantv2.so.17.0.1.0:_Z18NTV2DeviceHasSPIv512NTV2DeviceID
libajantv2.so.17.0.1.0:_Z18NTV2DeviceIDString12NTV2DeviceID
libajantv2.so.17.0.1.0:_Z18NTV2GetBitfileNameB5cxx1112NTV2DeviceIDb
libajantv2.so.17.0.1.0:_Z18NTV2MakeChannelSet11NTV2Channelt
libajantv2.so.17.0.1.0:_Z18NTV2MakeChannelSetSt6vectorI11NTV2ChannelSaIS0_EE
libajantv2.so.17.0.1.0:_Z18NTV2StandardString12NTV2Standard
libajantv2.so.17.0.1.0:_Z18VerticalFilterLineP13RGBAlphaPixelS0_S0_S0_i
libajantv2.so.17.0.1.0:_Z19AddAudioTestPatternPjRjjjbj
libajantv2.so.17.0.1.0:_Z19GetChangedRegistersRKSt6vectorI11NTV2RegInfoSaIS0_EES4_RSt3setIjSt4lessIjESaIjEE
libajantv2.so.17.0.1.0:_Z19NTV2AncDataRgnToStrB5cxx1123NTV2AncillaryDataRegionb
libajantv2.so.17.0.1.0:_Z19NTV2ChannelSetToStrB5cxx11RKSt3setI11NTV2ChannelSt4lessIS0_ESaIS0_EEb
libajantv2.so.17.0.1.0:_Z19NTV2ChannelToStringB5cxx1111NTV2Channelb
libajantv2.so.17.0.1.0:_Z19NTV2DeviceCanDo211012NTV2DeviceID
libajantv2.so.17.0.1.0:_Z19NTV2DeviceCanDo3GIn12NTV2DeviceIDt
libajantv2.so.17.0.1.0:_Z19NTV2DeviceCanDoGPIO12NTV2DeviceID
libajantv2.so.17.0.1.0:_Z19NTV2DeviceCanDoQREZ12NTV2DeviceID
libajantv2.so.17.0.1.0:_Z19NTV2FrameRateString13NTV2FrameRate
libajantv2.so.17.0.1.0:_Z19NTV2MakeChannelList11NTV2Channelt
libajantv2.so.17.0.1.0:_Z19NTV2MakeChannelListSt3setI11NTV2ChannelSt4lessIS0_ESaIS0_EE
libajantv2.so.17.0.1.0:_Z19NTV2PrintChannelSetRKSt3setI11NTV2ChannelSt4lessIS0_ESaIS0_EEbRSo
libajantv2.so.17.0.1.0:_Z19NTV2TCIndexToStringB5cxx1111NTV2TCIndexb
libajantv2.so.17.0.1.0:_Z19SerialNum64ToStringB5cxx11RKm
libajantv2.so.17.0.1.0:_Z19SetRasterLinesBlack21NTV2FrameBufferFormatPhjt
libajantv2.so.17.0.1.0:_Z19SetRasterLinesWhite21NTV2FrameBufferFormatPhjt
libajantv2.so.17.0.1.0:_Z19StringToSerialNum64RKNSt7__cxx1112basic_stringIcSt11char_traitsIcESaIcEEERm
libajantv2.so.17.0.1.0:_Z20AJA_ConvertLinetoRGBPhP17AJA_RGBAlphaPixeljb
libajantv2.so.17.0.1.0:_Z20AJA_ConvertLinetoRGBPtP17AJA_RGBAlphaPixeljb
libajantv2.so.17.0.1.0:_Z20ConvertRGBALineToBGRP13RGBAlphaPixelj
libajantv2.so.17.0.1.0:_Z20ConvertRGBALineToRGBP13RGBAlphaPixelj
libajantv2.so.17.0.1.0:_Z20CopyRGBAImageToFramePjjjS_jj
libajantv2.so.17.0.1.0:_Z20FieldInterpolateLineP13RGBAlphaPixelS0_S0_i
libajantv2.so.17.0.1.0:_Z20GetRelatedGeometries17NTV2FrameGeometry
libajantv2.so.17.0.1.0:_Z20GetSDIOutputInputXpt11NTV2Channelb
libajantv2.so.17.0.1.0:_Z20GetVANCFrameGeometry17NTV2FrameGeometry12NTV2VANCMode
libajantv2.so.17.0.1.0:_Z20IsAlphaChannelFormat21NTV2FrameBufferFormat
libajantv2.so.17.0.1.0:_Z20IsProgressivePicture16_NTV2VideoFormat
libajantv2.so.17.0.1.0:_Z20NTV2ChannelListToStrB5cxx11RKSt6vectorI11NTV2ChannelSaIS0_EEb
libajantv2.so.17.0.1.0:_Z20NTV2DeviceCanDo12GIn12NTV2DeviceIDt
libajantv2.so.17.0.1.0:_Z20NTV2DeviceCanDo292In12NTV2DeviceIDt
libajantv2.so.17.0.1.0:_Z20NTV2DeviceCanDo3GOut12NTV2DeviceIDt
libajantv2.so.17.0.1.0:_Z20NTV2DeviceCanDoRP18812NTV2DeviceID
libajantv2.so.17.0.1.0:_Z20NTV2DeviceCanDoVITC212NTV2DeviceID
libajantv2.so.17.0.1.0:_Z20NTV2DeviceGetNumCSCs12NTV2DeviceID
libajantv2.so.17.0.1.0:_Z20NTV2DeviceGetNumLUTs12NTV2DeviceID
libajantv2.so.17.0.1.0:_Z20NTV2DeviceGetPingLED12NTV2DeviceID
libajantv2.so.17.0.1.0:_Z20NTV2DeviceHasHEVCM3012NTV2DeviceID
libajantv2.so.17.0.1.0:_Z20NTV2DeviceHasHEVCM3112NTV2DeviceID
libajantv2.so.17.0.1.0:_Z20NTV2DeviceIDToStringB5cxx1112NTV2DeviceIDb
libajantv2.so.17.0.1.0:_Z20NTV2GetVersionStringB5cxx11b
libajantv2.so.17.0.1.0:_Z20NTV2PrintChannelListRKSt6vectorI11NTV2ChannelSaIS0_EEbRSo
libajantv2.so.17.0.1.0:_Z20NTV2StandardToStringB5cxx1112NTV2Standardb
libajantv2.so.17.0.1.0:_Z20NTV2TaskModeToStringB5cxx1122NTV2EveryFrameTaskModeb
libajantv2.so.17.0.1.0:_Z20NTV2VANCModeToStringB5cxx1112NTV2VANCModeb
libajantv2.so.17.0.1.0:_Z20NTV2WidgetIDToStringB5cxx1112NTV2WidgetIDb
libajantv2.so.17.0.1.0:_Z21AJAAncDataLocToStringB5cxx11RK13AJAAncDataLocb
libajantv2.so.17.0.1.0:_Z21AJA_ConvertARGBToABGRPhj
libajantv2.so.17.0.1.0:_Z21AJA_ConvertARGBToRGBAPhj
libajantv2.so.17.0.1.0:_Z21AJA_GenerateAudioTonePjjjjRjdPdS1_b
libajantv2.so.17.0.1.0:_Z21CalcRowBytesForFormat21NTV2FrameBufferFormatj
libajantv2.so.17.0.1.0:_Z21ConvertLineToYCbCr422P13RGBAlphaPixelPhiib
libajantv2.so.17.0.1.0:_Z21ConvertLineToYCbCr422P13RGBAlphaPixelPtiib
libajantv2.so.17.0.1.0:_Z21ConvertLineto10BitRGBPK13RGBAlphaPixelPjj
libajantv2.so.17.0.1.0:_Z21ConvertLineto10BitRGBPtP18RGBAlpha10BitPixeljbb
libajantv2.so.17.0.1.0:_Z21ConvertLineto16BitRGBPtP18RGBAlpha16BitPixeljbb
libajantv2.so.17.0.1.0:_Z21Get8MBFrameSizeFactor17NTV2FrameGeometry21NTV2FrameBufferFormat
libajantv2.so.17.0.1.0:_Z21GetFrameRateFromScalell13NTV2FrameRate
libajantv2.so.17.0.1.0:_Z21GetOutputDestInputXpt21NTV2OutputDestinationbt
libajantv2.so.17.0.1.0:_Z21GetScaleFromFrameRate13NTV2FrameRate
libajantv2.so.17.0.1.0:_Z21GetVaricamRepeatCount13NTV2FrameRateS_j
libajantv2.so.17.0.1.0:_Z21IsNTV2CrosspointInput14NTV2Crosspoint
libajantv2.so.17.0.1.0:_Z21NTV2AudioRateToStringB5cxx1113NTV2AudioRateb
libajantv2.so.17.0.1.0:_Z21NTV2DeviceCanDo12GOut12NTV2DeviceIDt
libajantv2.so.17.0.1.0:_Z21NTV2DeviceCanDo12GSDI12NTV2DeviceID
libajantv2.so.17.0.1.0:_Z21NTV2DeviceCanDo292Out12NTV2DeviceIDt
libajantv2.so.17.0.1.0:_Z21NTV2DeviceCanDo425Mux12NTV2DeviceID
libajantv2.so.17.0.1.0:_Z21NTV2DeviceCanDoAudioN12NTV2DeviceIDt
libajantv2.so.17.0.1.0:_Z21NTV2DeviceCanDoFormat12NTV2DeviceID13NTV2FrameRate17NTV2FrameGeometry12NTV2Standard
libajantv2.so.17.0.1.0:_Z21NTV2DeviceCanDoHFRRGB12NTV2DeviceID
libajantv2.so.17.0.1.0:_Z21NTV2DeviceCanDoLTCInN12NTV2DeviceIDt
libajantv2.so.17.0.1.0:_Z21NTV2DeviceCanDoProRes12NTV2DeviceID
libajantv2.so.17.0.1.0:_Z21NTV2DeviceCanDoRS422N12NTV2DeviceID11NTV2Channel
libajantv2.so.17.0.1.0:_Z21NTV2DeviceCanDoWidget12NTV2DeviceID12NTV2WidgetID
libajantv2.so.17.0.1.0:_Z21NTV2DeviceHasPCIeGen212NTV2DeviceID
libajantv2.so.17.0.1.0:_Z21NTV2DeviceHasSPIFlash12NTV2DeviceID
libajantv2.so.17.0.1.0:_Z21NTV2DeviceIsSupported12NTV2DeviceID
libajantv2.so.17.0.1.0:_Z21NTV2FrameRateToStringB5cxx1113NTV2FrameRateb
libajantv2.so.17.0.1.0:_Z21NTV2FramesizeToStringB5cxx1113NTV2Framesizeb
libajantv2.so.17.0.1.0:_Z21NTV2HDMIRangeToStringB5cxx1113NTV2HDMIRangeb
libajantv2.so.17.0.1.0:_Z21NTV2PrintULWordVectorRKSt6vectorIjSaIjEERSo
libajantv2.so.17.0.1.0:_Z21NTV2RegNumSetToStringB5cxx11RKSt3setIjSt4lessIjESaIjEE
libajantv2.so.17.0.1.0:_Z21NTV2VideoFormatString16_NTV2VideoFormat
libajantv2.so.17.0.1.0:_Z21get_vendor_and_deviceRSt3mapINSt7__cxx1112basic_stringIcSt11char_traitsIcESaIcEEES5_St4lessIS5_ESaISt4pairIKS5_S5_EEERSt6vectorIS5_SaIS5_EE
libajantv2.so.17.0.1.0:_Z22AJAAncDataLinkToStringB5cxx1114AJAAncDataLinkb
libajantv2.so.17.0.1.0:_Z22AJAAncDataTypeToStringB5cxx1114AJAAncDataTypeb
libajantv2.so.17.0.1.0:_Z22Convert8BitYCbCrToYUY2Phj
libajantv2.so.17.0.1.0:_Z22ConvertARGBYCbCrToABGRPhj
libajantv2.so.17.0.1.0:_Z22ConvertARGBYCbCrToRGBAPhj
libajantv2.so.17.0.1.0:_Z22ConvertLineTo8BitYCbCrPKtPhj
libajantv2.so.17.0.1.0:_Z22ConvertLineto8BitYCbCrPtPhj
libajantv2.so.17.0.1.0:_Z22GetIndexForNTV2Channel11NTV2Channel
libajantv2.so.17.0.1.0:_Z22GetNTV2ChannelForIndexj
libajantv2.so.17.0.1.0:_Z22GetVANCModeForGeometry17NTV2FrameGeometry
libajantv2.so.17.0.1.0:_Z22IsNTV2CrosspointOutput14NTV2Crosspoint
libajantv2.so.17.0.1.0:_Z22IsProgressiveTransport12NTV2Standard
libajantv2.so.17.0.1.0:_Z22IsProgressiveTransport16_NTV2VideoFormat
libajantv2.so.17.0.1.0:_Z22NTV2CrosspointToStringB5cxx1114NTV2Crosspoint
libajantv2.so.17.0.1.0:_Z22NTV2DeviceCanDo2KVideo12NTV2DeviceID
libajantv2.so.17.0.1.0:_Z22NTV2DeviceCanDo4KVideo12NTV2DeviceID
libajantv2.so.17.0.1.0:_Z22NTV2DeviceCanDo8KVideo12NTV2DeviceID
libajantv2.so.17.0.1.0:_Z22NTV2DeviceCanDoAudioIn12NTV2DeviceID
libajantv2.so.17.0.1.0:_Z22NTV2DeviceCanDoCapture12NTV2DeviceID
libajantv2.so.17.0.1.0:_Z22NTV2DeviceCanDoDSKMode12NTV2DeviceID11NTV2DSKMode
libajantv2.so.17.0.1.0:_Z22NTV2DeviceCanDoHDVideo12NTV2DeviceID
libajantv2.so.17.0.1.0:_Z22NTV2DeviceCanDoLTCOutN12NTV2DeviceIDt
libajantv2.so.17.0.1.0:_Z22NTV2DeviceCanDoSDVideo12NTV2DeviceID
libajantv2.so.17.0.1.0:_Z22NTV2DeviceCanDoTCIndex12NTV2DeviceID11NTV2TCIndex
libajantv2.so.17.0.1.0:_Z22NTV2DeviceGetNumMixers12NTV2DeviceID
libajantv2.so.17.0.1.0:_Z22NTV2DeviceHasGenlockv212NTV2DeviceID
libajantv2.so.17.0.1.0:_Z22NTV2DeviceHasGenlockv312NTV2DeviceID
libajantv2.so.17.0.1.0:_Z22NTV2DeviceHasSDIRelays12NTV2DeviceID
libajantv2.so.17.0.1.0:_Z22NTV2DeviceHasXilinxDMA12NTV2DeviceID
libajantv2.so.17.0.1.0:_Z22NTV2MakeAudioSystemSet15NTV2AudioSystemt
libajantv2.so.17.0.1.0:_Z22NTV2RegisterNameStringj
libajantv2.so.17.0.1.0:_Z22NTV2WidgetTypeToStringB5cxx1114NTV2WidgetTypeb
libajantv2.so.17.0.1.0:_Z22PackTo10BitYCbCrBufferPKtPjj
libajantv2.so.17.0.1.0:_Z22UnPack10BitYCbCrBufferPjPtj
libajantv2.so.17.0.1.0:_Z22setHDRDefaultsForDCIP3R12HDRRegValues
libajantv2.so.17.0.1.0:_Z23AJAAncDataSpaceToStringB5cxx1115AJAAncDataSpaceb
libajantv2.so.17.0.1.0:_Z23Fill8BitYCbCrVideoFramePv12NTV2Standard21NTV2FrameBufferFormat10YCbCrPixel12NTV2VANCMode
libajantv2.so.17.0.1.0:_Z23GetAudioSamplesPerFrame13NTV2FrameRate13NTV2AudioRatejb
libajantv2.so.17.0.1.0:_Z23GetGeometryFromStandard12NTV2Standard
libajantv2.so.17.0.1.0:_Z23GetInputSourceOutputXpt15NTV2InputSourcebbt
libajantv2.so.17.0.1.0:_Z23GetQuadSizedVideoFormat16_NTV2VideoFormatb
libajantv2.so.17.0.1.0:_Z23GetQuarterSizedGeometry17NTV2FrameGeometry
libajantv2.so.17.0.1.0:_Z23GetQuarterSizedStandard12NTV2Standard
libajantv2.so.17.0.1.0:_Z23GetStandardFromGeometry17NTV2FrameGeometryb
libajantv2.so.17.0.1.0:_Z23Is8BitFrameBufferFormat21NTV2FrameBufferFormat
libajantv2.so.17.0.1.0:_Z23IsMultiFormatCompatible13NTV2FrameRateS_
libajantv2.so.17.0.1.0:_Z23IsMultiFormatCompatible16_NTV2VideoFormatS_
libajantv2.so.17.0.1.0:_Z23NTV2AudioFormatToStringB5cxx1115NTV2AudioFormatb
libajantv2.so.17.0.1.0:_Z23NTV2AudioSourceToStringB5cxx1115NTV2AudioSourceb
libajantv2.so.17.0.1.0:_Z23NTV2AudioSystemSetToStrB5cxx11RKSt3setI15NTV2AudioSystemSt4lessIS0_ESaIS0_EEb
libajantv2.so.17.0.1.0:_Z23NTV2AudioSystemToStringB5cxx1115NTV2AudioSystemb
libajantv2.so.17.0.1.0:_Z23NTV2BitfileTypeToStringB5cxx1115NTV2BitfileTypeb
libajantv2.so.17.0.1.0:_Z23NTV2DeviceCanDisableUFC12NTV2DeviceID
libajantv2.so.17.0.1.0:_Z23NTV2DeviceCanDoAudio96K12NTV2DeviceID
libajantv2.so.17.0.1.0:_Z23NTV2DeviceCanDoAudioOut12NTV2DeviceID
libajantv2.so.17.0.1.0:_Z23NTV2DeviceCanDoDVCProHD12NTV2DeviceID
libajantv2.so.17.0.1.0:_Z23NTV2DeviceCanDoDualLink12NTV2DeviceID
libajantv2.so.17.0.1.0:_Z23NTV2DeviceCanDoIDSwitch12NTV2DeviceID
libajantv2.so.17.0.1.0:_Z23NTV2DeviceCanDoPlayback12NTV2DeviceID
libajantv2.so.17.0.1.0:_Z23NTV2DeviceCanDoStereoIn12NTV2DeviceID
libajantv2.so.17.0.1.0:_Z23NTV2DeviceCanThermostat12NTV2DeviceID
libajantv2.so.17.0.1.0:_Z23NTV2DeviceGetDACVersion12NTV2DeviceID
libajantv2.so.17.0.1.0:_Z23NTV2DeviceGetLUTVersion12NTV2DeviceID
libajantv2.so.17.0.1.0:_Z23NTV2DeviceGetUFCVersion12NTV2DeviceID
libajantv2.so.17.0.1.0:_Z23NTV2DeviceHasBracketLED12NTV2DeviceID
libajantv2.so.17.0.1.0:_Z23NTV2FrameGeometryString17NTV2FrameGeometry
libajantv2.so.17.0.1.0:_Z23NTV2GetSupportedDevices16_NTV2DeviceKinds
libajantv2.so.17.0.1.0:_Z23NTV2InputSourceToStringB5cxx1115NTV2InputSourceb
libajantv2.so.17.0.1.0:_Z23NTV2InterruptEnumStringj
libajantv2.so.17.0.1.0:_Z23NTV2IpErrorEnumToStringB5cxx1111NTV2IpError
libajantv2.so.17.0.1.0:_Z23NTV2PrintAudioSystemSetRKSt3setI15NTV2AudioSystemSt4lessIS0_ESaIS0_EEbRSo
libajantv2.so.17.0.1.0:_Z23NTV2VideoFormatToStringB5cxx1116_NTV2VideoFormatb
libajantv2.so.17.0.1.0:_Z23PackRGB10BitFor10BitDPXP18RGBAlpha10BitPixeljb
libajantv2.so.17.0.1.0:_Z23PackRGB10BitFor10BitRGBP18RGBAlpha10BitPixelj
libajantv2.so.17.0.1.0:_Z23ReSampleYCbCrSampleLinePsS_ii
libajantv2.so.17.0.1.0:_Z23map_utf8_to_codepage437PKciPh
libajantv2.so.17.0.1.0:_Z23setHDRDefaultsForBT2020R12HDRRegValues
libajantv2.so.17.0.1.0:_Z23strncpyasutf8_map_cp437PcPKci
libajantv2.so.17.0.1.0:_Z24AJAAncDataCodingToStringB5cxx1116AJAAncDataCodingb
libajantv2.so.17.0.1.0:_Z24AJAAncDataStreamToStringB5cxx1116AJAAncDataStreamb
libajantv2.so.17.0.1.0:_Z24AJAAncLineNumberToStringB5cxx11t
libajantv2.so.17.0.1.0:_Z24ConvertLine_2vuy_to_v210PKhPjj
libajantv2.so.17.0.1.0:_Z24ConvertLine_2vuy_to_yuy2PKhPtj
libajantv2.so.17.0.1.0:_Z24ConvertLine_v210_to_2vuyPKjPhj
libajantv2.so.17.0.1.0:_Z24ConvertLine_v210_to_2vuyPKvRSt6vectorIhSaIhEEj
libajantv2.so.17.0.1.0:_Z24ConvertLineto10BitYCbCrAPKtPjj
libajantv2.so.17.0.1.0:_Z24ConvertRGBLineto10BitRGBPK13RGBAlphaPixelP18RGBAlpha10BitPixelj
libajantv2.so.17.0.1.0:_Z24Fill10BitYCbCrVideoFramePv12NTV2Standard21NTV2FrameBufferFormat15YCbCr10BitPixel12NTV2VANCMode
libajantv2.so.17.0.1.0:_Z24GetAudioSamplesPerSecond13NTV2AudioRate
libajantv2.so.17.0.1.0:_Z24NTV2BreakoutTypeToStringB5cxx1116NTV2BreakoutTypeb
libajantv2.so.17.0.1.0:_Z24NTV2ChannelToAudioSystem11NTV2Channel
libajantv2.so.17.0.1.0:_Z24NTV2ChannelToInputSource11NTV2Channel20NTV2InputSourceKinds
libajantv2.so.17.0.1.0:_Z24NTV2DeviceCanDoAudio192K12NTV2DeviceID
libajantv2.so.17.0.1.0:_Z24NTV2DeviceCanDoCustomAnc12NTV2DeviceID
libajantv2.so.17.0.1.0:_Z24NTV2DeviceCanDoCustomAux12NTV2DeviceID
libajantv2.so.17.0.1.0:_Z24NTV2DeviceCanDoStereoOut12NTV2DeviceID
libajantv2.so.17.0.1.0:_Z24NTV2DeviceGetHDMIVersion12NTV2DeviceID
libajantv2.so.17.0.1.0:_Z24NTV2DeviceGetNumLUTBanks12NTV2DeviceID
libajantv2.so.17.0.1.0:_Z24NTV2FramesizeToByteCount13NTV2Framesize
libajantv2.so.17.0.1.0:_Z24NTV2HDMIBitDepthToStringB5cxx1116NTV2HDMIBitDepthb
libajantv2.so.17.0.1.0:_Z24NTV2HDMIProtocolToStringB5cxx1116NTV2HDMIProtocolb
libajantv2.so.17.0.1.0:_Z24NTV2InputSourceToChannel15NTV2InputSource
libajantv2.so.17.0.1.0:_Z24UnPack10BitDPXtoForRP215PtPjj
libajantv2.so.17.0.1.0:_Z25AJAAncDataChannelToStringB5cxx1117AJAAncDataChannelb
libajantv2.so.17.0.1.0:_Z25AJAAncHorizOffsetToStringB5cxx11t
libajantv2.so.17.0.1.0:_Z25AJA_CalcRowBytesForFormat15AJA_PixelFormatj
libajantv2.so.17.0.1.0:_Z25AJA_ConvertLineToYCbCr422P17AJA_RGBAlphaPixelPtiib
libajantv2.so.17.0.1.0:_Z25AJA_ConvertLineto10BitRGBPtP22AJA_RGBAlpha10BitPixeljb
libajantv2.so.17.0.1.0:_Z25AJA_ConvertLineto16BitRGBPtP22AJA_RGBAlpha16BitPixeljb
libajantv2.so.17.0.1.0:_Z25Fill4k8BitYCbCrVideoFramePj21NTV2FrameBufferFormat10YCbCrPixelbbb
libajantv2.so.17.0.1.0:_Z25GetCSCInputXptFromChannel11NTV2Channelb
libajantv2.so.17.0.1.0:_Z25GetIndexForNTV2Crosspoint14NTV2Crosspoint
libajantv2.so.17.0.1.0:_Z25GetInputForConversionMode18NTV2ConversionMode
libajantv2.so.17.0.1.0:_Z25GetLUTInputXptFromChannel11NTV2Channel
libajantv2.so.17.0.1.0:_Z25GetNTV2CrosspointForIndexj
libajantv2.so.17.0.1.0:_Z25GetNTV2FrameGeometryWidth17NTV2FrameGeometry
libajantv2.so.17.0.1.0:_Z25IsVideoFormatJ2KSupported16_NTV2VideoFormat
libajantv2.so.17.0.1.0:_Z25NTV2AudioLoopBackToStringB5cxx1117NTV2AudioLoopBackb
libajantv2.so.17.0.1.0:_Z25NTV2DeviceCanDo12gRouting12NTV2DeviceID
libajantv2.so.17.0.1.0:_Z25NTV2DeviceCanDoAESAudioIn12NTV2DeviceID
libajantv2.so.17.0.1.0:_Z25NTV2DeviceCanDoAudioDelay12NTV2DeviceID
libajantv2.so.17.0.1.0:_Z25NTV2DeviceCanDoAudioMixer12NTV2DeviceID
libajantv2.so.17.0.1.0:_Z25NTV2DeviceCanDoDSKOpacity12NTV2DeviceID
libajantv2.so.17.0.1.0:_Z25NTV2DeviceCanDoHDMIHDROut12NTV2DeviceID
libajantv2.so.17.0.1.0:_Z25NTV2DeviceCanDoIsoConvert12NTV2DeviceID
libajantv2.so.17.0.1.0:_Z25NTV2DeviceCanDoPCMControl12NTV2DeviceID
libajantv2.so.17.0.1.0:_Z25NTV2DeviceGetNumLTCInputs12NTV2DeviceID
libajantv2.so.17.0.1.0:_Z25NTV2FrameGeometryToStringB5cxx1117NTV2FrameGeometryb
libajantv2.so.17.0.1.0:_Z25NTV2GetFirmwareFolderPathB5cxx11v
libajantv2.so.17.0.1.0:_Z25NTV2GetSupportedStandardsRSt3setI12NTV2StandardSt4lessIS0_ESaIS0_EE
libajantv2.so.17.0.1.0:_Z25NTV2InterruptEnumToStringB5cxx1117_INTERRUPT_ENUMS_
libajantv2.so.17.0.1.0:_Z25NTV2UpConvertModeToStringB5cxx1117NTV2UpConvertModeb
libajantv2.so.17.0.1.0:_Z25NTV2VideoLimitingToStringB5cxx1117NTV2VideoLimitingb
libajantv2.so.17.0.1.0:_Z25RePackLineDataForYCbCrDPXPjj
libajantv2.so.17.0.1.0:_Z25UnpackLine_10BitYUVtoU16sRSt6vectorItSaItEERK10NTV2BufferRK20NTV2FormatDescriptort
libajantv2.so.17.0.1.0:_Z26AJAAncBufferFormatToStringB5cxx1118AJAAncBufferFormatb
libajantv2.so.17.0.1.0:_Z26AJA_Convert8BitYCbCrToYUY2Phj
libajantv2.so.17.0.1.0:_Z26AJA_ConvertLineto8BitYCbCrPtPhj
libajantv2.so.17.0.1.0:_Z26AJA_PackTo10BitYCbCrBufferPtPjj
libajantv2.so.17.0.1.0:_Z26AJA_UnPack10BitYCbCrBufferPjPtj
libajantv2.so.17.0.1.0:_Z26Convert16BitARGBTo16BitRGBP18RGBAlpha16BitPixelPtj
libajantv2.so.17.0.1.0:_Z26GetCSCOutputXptFromChannel11NTV2Channelbb
libajantv2.so.17.0.1.0:_Z26GetDLInInputXptFromChannel11NTV2Channelb
libajantv2.so.17.0.1.0:_Z26GetIndexForNTV2InputSource15NTV2InputSource
libajantv2.so.17.0.1.0:_Z26GetLUTOutputXptFromChannel11NTV2Channel
libajantv2.so.17.0.1.0:_Z26GetNTV2FrameGeometryHeight17NTV2FrameGeometry
libajantv2.so.17.0.1.0:_Z26GetNTV2InputSourceForIndexj20NTV2InputSourceKinds
libajantv2.so.17.0.1.0:_Z26GetNormalizedFrameGeometry17NTV2FrameGeometry
libajantv2.so.17.0.1.0:_Z26GetOutputForConversionMode18NTV2ConversionMode
libajantv2.so.17.0.1.0:_Z26GetQuarterSizedVideoFormat16_NTV2VideoFormat
libajantv2.so.17.0.1.0:_Z26NTV2ChannelToTimecodeIndex11NTV2Channelbb
libajantv2.so.17.0.1.0:_Z26NTV2DeviceCanDoAnalogAudio12NTV2DeviceID
libajantv2.so.17.0.1.0:_Z26NTV2DeviceCanDoBreakoutBox12NTV2DeviceID
libajantv2.so.17.0.1.0:_Z26NTV2DeviceCanDoEnhancedCSC12NTV2DeviceID
libajantv2.so.17.0.1.0:_Z26NTV2DeviceCanDoInputSource12NTV2DeviceID15NTV2InputSource
libajantv2.so.17.0.1.0:_Z26NTV2DeviceCanDoMultiFormat12NTV2DeviceID
libajantv2.so.17.0.1.0:_Z26NTV2DeviceCanDoRateConvert12NTV2DeviceID
libajantv2.so.17.0.1.0:_Z26NTV2DeviceCanDoThunderbolt12NTV2DeviceID
libajantv2.so.17.0.1.0:_Z26NTV2DeviceCanDoVideoFormat12NTV2DeviceID16_NTV2VideoFormat
libajantv2.so.17.0.1.0:_Z26NTV2DeviceGetNumDMAEngines12NTV2DeviceID
libajantv2.so.17.0.1.0:_Z26NTV2DeviceGetNumFrameSyncs12NTV2DeviceID
libajantv2.so.17.0.1.0:_Z26NTV2DeviceGetNumLTCOutputs12NTV2DeviceID
libajantv2.so.17.0.1.0:_Z26NTV2DeviceHasHeadphoneJack12NTV2DeviceID
libajantv2.so.17.0.1.0:_Z26NTV2DeviceHasPWMFanControl12NTV2DeviceID
libajantv2.so.17.0.1.0:_Z26NTV2DeviceHasRetailSupport12NTV2DeviceID
libajantv2.so.17.0.1.0:_Z26NTV2DeviceHasRotaryEncoder12NTV2DeviceID
libajantv2.so.17.0.1.0:_Z26NTV2DeviceIsExternalToHost12NTV2DeviceID
libajantv2.so.17.0.1.0:_Z26NTV2DeviceROMHasBankSelect12NTV2DeviceID
libajantv2.so.17.0.1.0:_Z26NTV2GetSDKVersionComponenti
libajantv2.so.17.0.1.0:_Z26NTV2HDMIColorSpaceToStringB5cxx1118NTV2HDMIColorSpaceb
libajantv2.so.17.0.1.0:_Z26NTV2IsoConvertModeToStringB5cxx1118NTV2IsoConvertModeb
libajantv2.so.17.0.1.0:_Z26NTV2M31VideoPresetToStringB5cxx1114M31VideoPresetb
libajantv2.so.17.0.1.0:_Z26NTV2MixerKeyerModeToStringB5cxx1118NTV2MixerKeyerModeb
libajantv2.so.17.0.1.0:_Z26NTV2PrintRasterLineOffsetsRKSt6vectorIjSaIjEERSo
libajantv2.so.17.0.1.0:_Z26NTV2RegisterNumberToStringB5cxx1118NTV2RegisterNumber
libajantv2.so.17.0.1.0:_Z26NTV2TimecodeIndexToChannel11NTV2TCIndex
libajantv2.so.17.0.1.0:_Z27AJAPerformanceTracking_stopRSt3mapINSt7__cxx1112basic_stringIcSt11char_traitsIcESaIcEEE14AJAPerformanceSt4lessIS5_ESaISt4pairIKS5_S6_EEES5_
libajantv2.so.17.0.1.0:_Z27AJA_PackRGB10BitFor10BitDPXP22AJA_RGBAlpha10BitPixeljb
libajantv2.so.17.0.1.0:_Z27AJA_PackRGB10BitFor10BitRGBP22AJA_RGBAlpha10BitPixelj
libajantv2.so.17.0.1.0:_Z27AJA_ReSampleYCbCrSampleLinePsS_ii
libajantv2.so.17.0.1.0:_Z27AutoCircVidProcModeToStringB5cxx1119AutoCircVidProcModeb
libajantv2.so.17.0.1.0:_Z27GetDLInOutputXptFromChannel11NTV2Channel
libajantv2.so.17.0.1.0:_Z27GetDLOutInputXptFromChannel11NTV2Channel
libajantv2.so.17.0.1.0:_Z27GetFirstMatchingVideoFormat13NTV2FrameRatettbbb
libajantv2.so.17.0.1.0:_Z27GetTCIndexesForSDIConnector11NTV2Channel
libajantv2.so.17.0.1.0:_Z27IsTransportCompatibleFormat16_NTV2VideoFormatS_
libajantv2.so.17.0.1.0:_Z27NTV2AudioBufferSizeToStringB5cxx1119NTV2AudioBufferSizeb
libajantv2.so.17.0.1.0:_Z27NTV2ChannelToInputInterrupt11NTV2Channel
libajantv2.so.17.0.1.0:_Z27NTV2CrosspointToNTV2Channel14NTV2Crosspoint
libajantv2.so.17.0.1.0:_Z27NTV2DeviceCanDoClockMonitor12NTV2DeviceID
libajantv2.so.17.0.1.0:_Z27NTV2DeviceCanDoInputTCIndex12NTV2DeviceID11NTV2TCIndex
libajantv2.so.17.0.1.0:_Z27NTV2DeviceCanDoLTCEmbeddedN12NTV2DeviceIDt
libajantv2.so.17.0.1.0:_Z27NTV2DeviceCanDoPCMDetection12NTV2DeviceID
libajantv2.so.17.0.1.0:_Z27NTV2DeviceCanDoStackedAudio12NTV2DeviceID
libajantv2.so.17.0.1.0:_Z27NTV2DeviceCanDoWarmBootFPGA12NTV2DeviceID
libajantv2.so.17.0.1.0:_Z27NTV2DeviceGetGenlockVersion12NTV2DeviceID
libajantv2.so.17.0.1.0:_Z27NTV2DeviceGetNumFrameStores12NTV2DeviceID
libajantv2.so.17.0.1.0:_Z27NTV2DeviceGetNumSerialPorts12NTV2DeviceID
libajantv2.so.17.0.1.0:_Z27NTV2DeviceGetNumVideoInputs12NTV2DeviceID
libajantv2.so.17.0.1.0:_Z27NTV2DeviceHasLEDAudioMeters12NTV2DeviceID
libajantv2.so.17.0.1.0:_Z27NTV2DeviceHasSPIFlashSerial12NTV2DeviceID
libajantv2.so.17.0.1.0:_Z27NTV2DeviceNeedsRoutingSetup12NTV2DeviceID
libajantv2.so.17.0.1.0:_Z27NTV2DownConvertModeToStringB5cxx1119NTV2DownConvertModeb
libajantv2.so.17.0.1.0:_Z27NTV2FrameBufferFormatString21NTV2FrameBufferFormat
libajantv2.so.17.0.1.0:_Z27NTV2GetUnsupportedStandardsRSt3setI12NTV2StandardSt4lessIS0_ESaIS0_EE
libajantv2.so.17.0.1.0:_Z27NTV2IsCompatibleBitfileNameRKNSt7__cxx1112basic_stringIcSt11char_traitsIcESaIcEEE12NTV2DeviceID
libajantv2.so.17.0.1.0:_Z27NTV2ReferenceSourceToStringB5cxx1119NTV2ReferenceSourceb
libajantv2.so.17.0.1.0:_Z27PackLine_16BitYUVto10BitYUVPKtPjj
libajantv2.so.17.0.1.0:_Z28AJAPerformanceTracking_startRSt3mapINSt7__cxx1112basic_stringIcSt11char_traitsIcESaIcEEE14AJAPerformanceSt4lessIS5_ESaISt4pairIKS5_S6_EEES5_17AJATimerPrecisionm
libajantv2.so.17.0.1.0:_Z28AJAPerformanceTracking_startRSt3mapINSt7__cxx1112basic_stringIcSt11char_traitsIcESaIcEEE14AJAPerformanceSt4lessIS5_ESaISt4pairIKS5_S6_EEES5_RKS_IS5_mS8_SaIS9_ISA_mEEE17AJATimerPrecisionm
libajantv2.so.17.0.1.0:_Z28AJA_ConvertPixelFormatToRGBAPjP17AJA_RGBAlphaPixelj15AJA_PixelFormatb
libajantv2.so.17.0.1.0:_Z28AJA_HDConvertRGBAlphatoYCbCrP17AJA_RGBAlphaPixelP19AJA_YCbCr10BitPixel
libajantv2.so.17.0.1.0:_Z28AJA_SDConvertRGBAlphatoYCbCrP17AJA_RGBAlphaPixelP19AJA_YCbCr10BitPixel
libajantv2.so.17.0.1.0:_Z28Convert16BitARGBTo16BitRGBExPtS_j
libajantv2.so.17.0.1.0:_Z28GetDLOutOutputXptFromChannel11NTV2Channelb
libajantv2.so.17.0.1.0:_Z28GetMixerOutputXptFromChannel11NTV2Channelb
libajantv2.so.17.0.1.0:_Z28GetTSIMuxInputXptFromChannel11NTV2Channelb
libajantv2.so.17.0.1.0:_Z28GetTransportCompatibleFormat16_NTV2VideoFormatS_
libajantv2.so.17.0.1.0:_Z28MakeUnPacked10BitYCbCrBufferPttttj
libajantv2.so.17.0.1.0:_Z28MaskUnPacked10BitYCbCrBufferPttj
libajantv2.so.17.0.1.0:_Z28NTV2AudioChannelPairToStringB5cxx1120NTV2AudioChannelPairb
libajantv2.so.17.0.1.0:_Z28NTV2AudioChannelQuadToStringB5cxx1123NTV2Audio4ChannelSelectb
libajantv2.so.17.0.1.0:_Z28NTV2ChannelToInputCrosspoint11NTV2Channel
libajantv2.so.17.0.1.0:_Z28NTV2ChannelToOutputInterrupt11NTV2Channel
libajantv2.so.17.0.1.0:_Z28NTV2DeviceCanDoAnalogVideoIn12NTV2DeviceID
libajantv2.so.17.0.1.0:_Z28NTV2DeviceCanDoBreakoutBoard12NTV2DeviceID
libajantv2.so.17.0.1.0:_Z28NTV2DeviceCanDoHDMIMultiView12NTV2DeviceID
libajantv2.so.17.0.1.0:_Z28NTV2DeviceCanDoHDMIOutStereo12NTV2DeviceID
libajantv2.so.17.0.1.0:_Z28NTV2DeviceCanDoQuarterExpand12NTV2DeviceID
libajantv2.so.17.0.1.0:_Z28NTV2DeviceCanReportFrameSize12NTV2DeviceID
libajantv2.so.17.0.1.0:_Z28NTV2DeviceGetFrameBufferSize12NTV2DeviceID
libajantv2.so.17.0.1.0:_Z28NTV2DeviceGetFrameBufferSize12NTV2DeviceID17NTV2FrameGeometry21NTV2FrameBufferFormat
libajantv2.so.17.0.1.0:_Z28NTV2DeviceGetHostAudioSystem12NTV2DeviceID
libajantv2.so.17.0.1.0:_Z28NTV2DeviceGetNumAudioStreams12NTV2DeviceID
libajantv2.so.17.0.1.0:_Z28NTV2DeviceGetNumAudioSystems12NTV2DeviceID
libajantv2.so.17.0.1.0:_Z28NTV2DeviceGetNumUpConverters12NTV2DeviceID
libajantv2.so.17.0.1.0:_Z28NTV2DeviceGetNumVideoOutputs12NTV2DeviceID
libajantv2.so.17.0.1.0:_Z28NTV2DeviceGetSPIFlashVersion12NTV2DeviceID
libajantv2.so.17.0.1.0:_Z28NTV2GetSupportedPixelFormatsRSt3setI21NTV2FrameBufferFormatSt4lessIS0_ESaIS0_EE
libajantv2.so.17.0.1.0:_Z28NTV2InputSourceToAudioSource15NTV2InputSource
libajantv2.so.17.0.1.0:_Z28NTV2InputSourceToAudioSystem15NTV2InputSource
libajantv2.so.17.0.1.0:_Z28NTV2InputSourceToChannelSpec15NTV2InputSource
libajantv2.so.17.0.1.0:_Z29AJAPerformanceTracking_reportRSt3mapINSt7__cxx1112basic_stringIcSt11char_traitsIcESaIcEEE14AJAPerformanceSt4lessIS5_ESaISt4pairIKS5_S6_EEES5_PKci
libajantv2.so.17.0.1.0:_Z29AJA_PackTo10BitYCbCrDPXBufferPtPjjb
libajantv2.so.17.0.1.0:_Z29AJA_RePackLineDataForYCbCrDPXPjj
libajantv2.so.17.0.1.0:_Z29GetTSIMuxOutputXptFromChannel11NTV2Channelbb
libajantv2.so.17.0.1.0:_Z29NTV2AudioChannelOctetToStringB5cxx1123NTV2Audio8ChannelSelectb
libajantv2.so.17.0.1.0:_Z29NTV2ChannelToOutputCrosspoint11NTV2Channel
libajantv2.so.17.0.1.0:_Z29NTV2DeviceCanDoAnalogVideoOut12NTV2DeviceID
libajantv2.so.17.0.1.0:_Z29NTV2DeviceCanDoAudio2Channels12NTV2DeviceID
libajantv2.so.17.0.1.0:_Z29NTV2DeviceCanDoAudio6Channels12NTV2DeviceID
libajantv2.so.17.0.1.0:_Z29NTV2DeviceCanDoAudio8Channels12NTV2DeviceID
libajantv2.so.17.0.1.0:_Z29NTV2DeviceCanDoConversionMode12NTV2DeviceID18NTV2ConversionMode
libajantv2.so.17.0.1.0:_Z29NTV2DeviceCanDoLTCInOnRefPort12NTV2DeviceID
libajantv2.so.17.0.1.0:_Z29NTV2DeviceCanDoMultiLinkAudio12NTV2DeviceID
libajantv2.so.17.0.1.0:_Z29NTV2DeviceCanDoSDIErrorChecks12NTV2DeviceID
libajantv2.so.17.0.1.0:_Z29NTV2DeviceGetActiveMemorySize12NTV2DeviceID
libajantv2.so.17.0.1.0:_Z29NTV2DeviceGetAudioFrameBuffer12NTV2DeviceID
libajantv2.so.17.0.1.0:_Z29NTV2DeviceGetAudioFrameBuffer12NTV2DeviceID17NTV2FrameGeometry21NTV2FrameBufferFormat
libajantv2.so.17.0.1.0:_Z29NTV2DeviceGetAudioMixerSystem12NTV2DeviceID
libajantv2.so.17.0.1.0:_Z29NTV2DeviceGetMaxAudioChannels12NTV2DeviceID
libajantv2.so.17.0.1.0:_Z29NTV2DeviceGetMaxTransferCount12NTV2DeviceID
libajantv2.so.17.0.1.0:_Z29NTV2DeviceGetNumVideoChannels12NTV2DeviceID
libajantv2.so.17.0.1.0:_Z29NTV2DeviceHasBiDirectionalSDI12NTV2DeviceID
libajantv2.so.17.0.1.0:_Z29NTV2DeviceIsDirectAddressable12NTV2DeviceID
libajantv2.so.17.0.1.0:_Z29NTV2FrameBufferFormatToStringB5cxx1121NTV2FrameBufferFormatb
libajantv2.so.17.0.1.0:_Z29NTV2HDMIAudioChannelsToStringB5cxx1121NTV2HDMIAudioChannelsb
libajantv2.so.17.0.1.0:_Z29NTV2InputCrosspointIDToStringB5cxx1121NTV2InputCrosspointIDb
libajantv2.so.17.0.1.0:_Z29NTV2MixerInputControlToStringB5cxx1126NTV2MixerKeyerInputControlb
libajantv2.so.17.0.1.0:_Z29NTV2OutputDestinationToStringB5cxx1121NTV2OutputDestinationb
libajantv2.so.17.0.1.0:_Z29NTV2RegisterWriteModeToStringB5cxx1121NTV2RegisterWriteModeb
libajantv2.so.17.0.1.0:_Z29PackRGB10BitFor10BitRGBPackedP18RGBAlpha10BitPixelj
libajantv2.so.17.0.1.0:_Z29UnpackLine_10BitYUVto16BitYUVPKjPtj
libajantv2.so.17.0.1.0:_Z30AJA_Convert16BitARGBTo16BitRGBP22AJA_RGBAlpha16BitPixelPtj
libajantv2.so.17.0.1.0:_Z30AncChannelSearchSelectToStringB5cxx1122AncChannelSearchSelectb
libajantv2.so.17.0.1.0:_Z30GetGeometryFromFrameDimensionsRK19NTV2FrameDimensions
libajantv2.so.17.0.1.0:_Z30GetIndexForNTV2CrosspointInput14NTV2Crosspoint
libajantv2.so.17.0.1.0:_Z30GetNTV2CrosspointInputForIndexj
libajantv2.so.17.0.1.0:_Z30GetNTV2HDMIInputSourceForIndexj
libajantv2.so.17.0.1.0:_Z30GetNTV2StandardFromVideoFormat16_NTV2VideoFormat
libajantv2.so.17.0.1.0:_Z30NTV2AudioBufferSizeToByteCount19NTV2AudioBufferSize
libajantv2.so.17.0.1.0:_Z30NTV2AutoCirculateStateToStringB5cxx1122NTV2AutoCirculateState
libajantv2.so.17.0.1.0:_Z30NTV2ChannelToOutputDestination11NTV2Channel
libajantv2.so.17.0.1.0:_Z30NTV2DeviceCanDoColorCorrection12NTV2DeviceID
libajantv2.so.17.0.1.0:_Z30NTV2DeviceCanDoProgrammableCSC12NTV2DeviceID
libajantv2.so.17.0.1.0:_Z30NTV2DeviceCanDoRGBPlusAlphaOut12NTV2DeviceID
libajantv2.so.17.0.1.0:_Z30NTV2DeviceCanDoVideoProcessing12NTV2DeviceID
libajantv2.so.17.0.1.0:_Z30NTV2DeviceGetAudioFrameBuffer212NTV2DeviceID
libajantv2.so.17.0.1.0:_Z30NTV2DeviceGetAudioFrameBuffer212NTV2DeviceID17NTV2FrameGeometry21NTV2FrameBufferFormat
libajantv2.so.17.0.1.0:_Z30NTV2DeviceGetMaxRegisterNumber12NTV2DeviceID
libajantv2.so.17.0.1.0:_Z30NTV2DeviceGetNumDownConverters12NTV2DeviceID
libajantv2.so.17.0.1.0:_Z30NTV2EmbeddedAudioClockToStringB5cxx1122NTV2EmbeddedAudioClockb
libajantv2.so.17.0.1.0:_Z30NTV2EmbeddedAudioInputToStringB5cxx1122NTV2EmbeddedAudioInputb
libajantv2.so.17.0.1.0:_Z30NTV2GetDeviceIDFromBitfileNameRKNSt7__cxx1112basic_stringIcSt11char_traitsIcESaIcEEE
libajantv2.so.17.0.1.0:_Z30NTV2GetUnsupportedPixelFormatsRSt3setI21NTV2FrameBufferFormatSt4lessIS0_ESaIS0_EE
libajantv2.so.17.0.1.0:_Z30NTV2InputSourceToTimecodeIndex15NTV2InputSourceb
libajantv2.so.17.0.1.0:_Z30NTV2OutputCrosspointIDToStringB5cxx1122NTV2OutputCrosspointIDb
libajantv2.so.17.0.1.0:_Z30NTV2OutputDestinationToChannel21NTV2OutputDestination
libajantv2.so.17.0.1.0:_Z30NTV2TimecodeIndexToInputSource11NTV2TCIndex
libajantv2.so.17.0.1.0:_Z31AJA_MakeUnPacked8BitYCbCrBufferPhhhhj
libajantv2.so.17.0.1.0:_Z31FindFirstMatchingRegisterNumberjRKSt6vectorI11NTV2RegInfoSaIS0_EE
libajantv2.so.17.0.1.0:_Z31GetNTV2FrameRateFromVideoFormat16_NTV2VideoFormat
libajantv2.so.17.0.1.0:_Z31GetNTV2StandardFromScanGeometryhb
libajantv2.so.17.0.1.0:_Z31GetSDIInputOutputXptFromChannel11NTV2Channelb
libajantv2.so.17.0.1.0:_Z31NTV2ChannelToEmbeddedAudioInput11NTV2Channel
libajantv2.so.17.0.1.0:_Z31NTV2ColorCorrectionModeToStringB5cxx1123NTV2ColorCorrectionModeb
libajantv2.so.17.0.1.0:_Z31NTV2DeviceCanDoFramePulseSelect12NTV2DeviceID
libajantv2.so.17.0.1.0:_Z31NTV2DeviceCanMeasureTemperature12NTV2DeviceID
libajantv2.so.17.0.1.0:_Z31NTV2DeviceGetDownConverterDelay12NTV2DeviceID
libajantv2.so.17.0.1.0:_Z31NTV2DeviceGetNumCrossConverters12NTV2DeviceID
libajantv2.so.17.0.1.0:_Z31NTV2DeviceGetNumHDMIVideoInputs12NTV2DeviceID
libajantv2.so.17.0.1.0:_Z31NTV2DeviceGetNumInputConverters12NTV2DeviceID
libajantv2.so.17.0.1.0:_Z31NTV2DeviceGetNumberFrameBuffers12NTV2DeviceID
libajantv2.so.17.0.1.0:_Z31NTV2DeviceGetNumberFrameBuffers12NTV2DeviceID17NTV2FrameGeometry21NTV2FrameBufferFormat
libajantv2.so.17.0.1.0:_Z31NTV2DeviceGetSupportedStandards12NTV2DeviceIDRSt3setI12NTV2StandardSt4lessIS1_ESaIS1_EE
libajantv2.so.17.0.1.0:_Z31convertHDRFloatToRegisterValuesRK14HDRFloatValuesR12HDRRegValues
libajantv2.so.17.0.1.0:_Z31convertHDRRegisterToFloatValuesRK12HDRRegValuesR14HDRFloatValues
libajantv2.so.17.0.1.0:_Z32AJA_MakeUnPacked10BitYCbCrBufferPttttj
libajantv2.so.17.0.1.0:_Z32AJA_MaskUnPacked10BitYCbCrBufferPttj
libajantv2.so.17.0.1.0:_Z32Convert16BitARGBTo12BitRGBPackedP18RGBAlpha16BitPixelPhj
libajantv2.so.17.0.1.0:_Z32ConvertLine_8bitABGR_to_24bitBGRPKhPhj
libajantv2.so.17.0.1.0:_Z32ConvertLine_8bitABGR_to_24bitRGBPKhPhj
libajantv2.so.17.0.1.0:_Z32ConvertLine_8bitABGR_to_48bitRGBPKhPjj
libajantv2.so.17.0.1.0:_Z32GetIndexForNTV2CrosspointChannel14NTV2Crosspoint
libajantv2.so.17.0.1.0:_Z32GetNTV2CrosspointChannelForIndexj
libajantv2.so.17.0.1.0:_Z32NTV2DeviceCanDo3GLevelConversion12NTV2DeviceID
libajantv2.so.17.0.1.0:_Z32NTV2DeviceCanDoFrameBufferFormat12NTV2DeviceID21NTV2FrameBufferFormat
libajantv2.so.17.0.1.0:_Z32NTV2DeviceCanDoOutputDestination12NTV2DeviceID21NTV2OutputDestination
libajantv2.so.17.0.1.0:_Z32NTV2DeviceCanDoProgrammableRS42212NTV2DeviceID
libajantv2.so.17.0.1.0:_Z32NTV2DeviceGetNum2022ChannelsSFP112NTV2DeviceID
libajantv2.so.17.0.1.0:_Z32NTV2DeviceGetNum2022ChannelsSFP212NTV2DeviceID
libajantv2.so.17.0.1.0:_Z32NTV2DeviceGetNumHDMIVideoOutputs12NTV2DeviceID
libajantv2.so.17.0.1.0:_Z32NTV2DeviceGetNumOutputConverters12NTV2DeviceID
libajantv2.so.17.0.1.0:_Z32NTV2DeviceGetSupportedFrameRates12NTV2DeviceIDRSt3setI13NTV2FrameRateSt4lessIS1_ESaIS1_EE
libajantv2.so.17.0.1.0:_Z32NTV2DeviceGetSupportedGeometries12NTV2DeviceIDRSt3setI17NTV2FrameGeometrySt4lessIS1_ESaIS1_EE
libajantv2.so.17.0.1.0:_Z32NTV2InputSourceToReferenceSource15NTV2InputSource
libajantv2.so.17.0.1.0:_Z32PackLine_UWordSequenceTo10BitYUVRKSt6vectorItSaItEEPjj
libajantv2.so.17.0.1.0:_Z33AJA_PackRGB10BitFor10BitRGBPackedP22AJA_RGBAlpha10BitPixelj
libajantv2.so.17.0.1.0:_Z33ConvertLine_8bitABGR_to_10bitABGRPKhPjj
libajantv2.so.17.0.1.0:_Z33GetFrameBufferInputXptFromChannel11NTV2Channelb
libajantv2.so.17.0.1.0:_Z33NTV2DeviceCanDoFrameStore1Display12NTV2DeviceID
libajantv2.so.17.0.1.0:_Z33NTV2DeviceCanReportFailSafeLoaded12NTV2DeviceID
libajantv2.so.17.0.1.0:_Z33NTV2DeviceGetNumAnalogVideoInputs12NTV2DeviceID
libajantv2.so.17.0.1.0:_Z33NTV2DeviceGetSupportedOutputDests12NTV2DeviceIDRSt3setI21NTV2OutputDestinationSt4lessIS1_ESaIS1_EE20NTV2InputSourceKinds
libajantv2.so.17.0.1.0:_Z33NTV2DeviceGetVideoFormatFromStateP16_NTV2VideoFormat13NTV2FrameRate17NTV2FrameGeometry12NTV2Standardj
libajantv2.so.17.0.1.0:_Z33NTV2DeviceHasAudioMonitorRCAJacks12NTV2DeviceID
libajantv2.so.17.0.1.0:_Z34GetFrameBufferOutputXptFromChannel11NTV2Channelbb
libajantv2.so.17.0.1.0:_Z34NTV2DeviceCanChangeFrameBufferSize12NTV2DeviceID
libajantv2.so.17.0.1.0:_Z34NTV2DeviceCanDoRGBLevelAConversion12NTV2DeviceID
libajantv2.so.17.0.1.0:_Z34NTV2DeviceGetNumAnalogVideoOutputs12NTV2DeviceID
libajantv2.so.17.0.1.0:_Z34NTV2DeviceGetSupportedInputSources12NTV2DeviceIDRSt3setI15NTV2InputSourceSt4lessIS1_ESaIS1_EE20NTV2InputSourceKinds
libajantv2.so.17.0.1.0:_Z34NTV2DeviceGetSupportedPixelFormats12NTV2DeviceIDRSt3setI21NTV2FrameBufferFormatSt4lessIS1_ESaIS1_EE
libajantv2.so.17.0.1.0:_Z34NTV2DeviceGetSupportedVideoFormats12NTV2DeviceIDRSt3setI16_NTV2VideoFormatSt4lessIS1_ESaIS1_EE
libajantv2.so.17.0.1.0:_Z34UnPack10BitDPXtoRGBAlpha10BitPixelP18RGBAlpha10BitPixelPKjjb
libajantv2.so.17.0.1.0:_Z34UnpackLine_10BitYUVtoUWordSequencePKvRK20NTV2FormatDescriptorRSt6vectorItSaItEE
libajantv2.so.17.0.1.0:_Z34UnpackLine_10BitYUVtoUWordSequencePKvRSt6vectorItSaItEEj
libajantv2.so.17.0.1.0:_Z35AJA_ConvertRGBAlpha10LineToYCbCr422P22AJA_RGBAlpha10BitPixelPtiib
libajantv2.so.17.0.1.0:_Z35ConvertLine_8bitABGR_to_10bitRGBDPXPKhPjj
libajantv2.so.17.0.1.0:_Z35GetNTV2FrameGeometryFromVideoFormat16_NTV2VideoFormat
libajantv2.so.17.0.1.0:_Z35NTV2InputSourceToEmbeddedAudioInput15NTV2InputSource
libajantv2.so.17.0.1.0:_Z35YUVComponentsTo10BitYUVPackedBufferRKSt6vectorItSaItEER10NTV2BufferRK20NTV2FormatDescriptort
libajantv2.so.17.0.1.0:_Z36AJA_Convert16BitARGBTo12BitRGBPackedP22AJA_RGBAlpha16BitPixelPhj
libajantv2.so.17.0.1.0:_Z36AJA_Convert16BitRGBtoBayer10BitDPXLJP22AJA_RGBAlpha16BitPixelPjjj19AJA_BayerColorPhase
libajantv2.so.17.0.1.0:_Z36AJA_Convert16BitRGBtoBayer12BitDPXLJP22AJA_RGBAlpha16BitPixelPjjj19AJA_BayerColorPhase
libajantv2.so.17.0.1.0:_Z36AJA_UnPack10BitDPXtoRGBAlphaBitPixelPhPjjb
libajantv2.so.17.0.1.0:_Z36NTV2DeviceGetNumReferenceVideoInputs12NTV2DeviceID
libajantv2.so.17.0.1.0:_Z36NTV2DeviceGetNumberVideoFrameBuffers12NTV2DeviceID17NTV2FrameGeometry13NTV2Framesize
libajantv2.so.17.0.1.0:_Z36NTV2DeviceGetVideoFormatFromState_ExP16_NTV2VideoFormat13NTV2FrameRate17NTV2FrameGeometry12NTV2Standardjb
libajantv2.so.17.0.1.0:_Z37ConvertLine_8bitABGR_to_10bitRGBDPXLEPKhPjj
libajantv2.so.17.0.1.0:_Z37NTV2DeviceCanChangeEmbeddedAudioClock12NTV2DeviceID
libajantv2.so.17.0.1.0:_Z37NTV2DeviceGetNumAESAudioInputChannels12NTV2DeviceID
libajantv2.so.17.0.1.0:_Z37NTV2DeviceGetVideoFormatFromState_Ex2P16_NTV2VideoFormat13NTV2FrameRate17NTV2FrameGeometry12NTV2Standardjbb
libajantv2.so.17.0.1.0:_Z37NTV2DeviceHasBiDirectionalAnalogAudio12NTV2DeviceID
libajantv2.so.17.0.1.0:_Z38AJA_UnPack10BitDPXtoRGBAlpha10BitPixelP22AJA_RGBAlpha10BitPixelPjjb
libajantv2.so.17.0.1.0:_Z38ConvertUnpacked10BitYCbCrToPixelFormatPtPjj21NTV2FrameBufferFormatbb
libajantv2.so.17.0.1.0:_Z38NTV2DeviceCanReportRunningFirmwareDate12NTV2DeviceID
libajantv2.so.17.0.1.0:_Z38NTV2DeviceGetNumAESAudioOutputChannels12NTV2DeviceID
libajantv2.so.17.0.1.0:_Z38NTV2DeviceGetNumHDMIAudioInputChannels12NTV2DeviceID
libajantv2.so.17.0.1.0:_Z38UnPack10BitDPXtoForRP215withEndianSwapPtPjj
libajantv2.so.17.0.1.0:_Z38work_around_erroneous_compiler_warningv
libajantv2.so.17.0.1.0:_Z39NTV2DeviceGetNum4kQuarterSizeConverters12NTV2DeviceID
libajantv2.so.17.0.1.0:_Z39NTV2DeviceGetNumHDMIAudioOutputChannels12NTV2DeviceID
libajantv2.so.17.0.1.0:_Z40AJA_Convert16BitRGBtoBayer10BitDPXPackedP22AJA_RGBAlpha16BitPixelPhjj19AJA_BayerColorPhase
libajantv2.so.17.0.1.0:_Z40AJA_Convert16BitRGBtoBayer12BitDPXPackedP22AJA_RGBAlpha16BitPixelPhjj19AJA_BayerColorPhase
libajantv2.so.17.0.1.0:_Z40GetNTV2FrameRateFromNumeratorDenominatorjj
libajantv2.so.17.0.1.0:_Z40NTV2DeviceGetNumAnalogAudioInputChannels12NTV2DeviceID
libajantv2.so.17.0.1.0:_Z41NTV2DeviceGetNumAnalogAudioOutputChannels12NTV2DeviceID
libajantv2.so.17.0.1.0:_Z42AJA_ConvertUnpacked10BitYCbCrToPixelFormatPtPjj15AJA_PixelFormat
libajantv2.so.17.0.1.0:_Z42NTV2DeviceGetNumEmbeddedAudioInputChannels12NTV2DeviceID
libajantv2.so.17.0.1.0:_Z42NTV2DeviceHasColorSpaceConverterOnChannel212NTV2DeviceID
libajantv2.so.17.0.1.0:_Z42NTV2DeviceSoftwareCanChangeFrameBufferSize12NTV2DeviceID
libajantv2.so.17.0.1.0:_Z43NTV2DeviceGetNumEmbeddedAudioOutputChannels12NTV2DeviceID
libajantv2.so.17.0.1.0:_Z47GetSupportedNTV2VideoFormatFromInputVideoFormat16_NTV2VideoFormat
libajantv2.so.17.0.1.0:_Z48GetTotalAudioSamplesFromFrameNbrZeroUpToFrameNbr13NTV2FrameRate13NTV2AudioRatej
libajantv2.so.17.0.1.0:_Z5IsPSF16_NTV2VideoFormat
libajantv2.so.17.0.1.0:_Z5IsRaw21NTV2FrameBufferFormat
libajantv2.so.17.0.1.0:_Z7aja_cmdB5cxx11PKc
libajantv2.so.17.0.1.0:_ZN10AJANetwork13aja_inet_addrEPKc
libajantv2.so.17.0.1.0:_ZN10AJANetwork13aja_inet_ntoaE7in_addr
libajantv2.so.17.0.1.0:_ZN10AJANetworkC1Ev
libajantv2.so.17.0.1.0:_ZN10AJANetworkC2Ev
libajantv2.so.17.0.1.0:_ZN10AJANetworkD0Ev
libajantv2.so.17.0.1.0:_ZN10AJANetworkD1Ev
libajantv2.so.17.0.1.0:_ZN10AJANetworkD2Ev
libajantv2.so.17.0.1.0:_ZN10AJAPnpImpl11GetCallbackEv
libajantv2.so.17.0.1.0:_ZN10AJAPnpImpl13GetPnpDevicesEv
libajantv2.so.17.0.1.0:_ZN10AJAPnpImpl7InstallEPFv13AJAPnpMessagePvES1_j
libajantv2.so.17.0.1.0:_ZN10AJAPnpImpl9GetRefConEv
libajantv2.so.17.0.1.0:_ZN10AJAPnpImpl9UninstallEv
libajantv2.so.17.0.1.0:_ZN10AJAPnpImplC1Ev
libajantv2.so.17.0.1.0:_ZN10AJAPnpImplC2Ev
libajantv2.so.17.0.1.0:_ZN10AJAPnpImplD0Ev
libajantv2.so.17.0.1.0:_ZN10AJAPnpImplD1Ev
libajantv2.so.17.0.1.0:_ZN10AJAPnpImplD2Ev
libajantv2.so.17.0.1.0:_ZN10AJAProcess6GetPidEv
libajantv2.so.17.0.1.0:_ZN10AJAProcess7IsValidEm
libajantv2.so.17.0.1.0:_ZN10AJAProcess8ActivateEPKc
libajantv2.so.17.0.1.0:_ZN10AJAProcess8ActivateEm
libajantv2.so.17.0.1.0:_ZN10AJAProcessC1Ev
libajantv2.so.17.0.1.0:_ZN10AJAProcessC2Ev
libajantv2.so.17.0.1.0:_ZN10AJAProcessD0Ev
libajantv2.so.17.0.1.0:_ZN10AJAProcessD1Ev
libajantv2.so.17.0.1.0:_ZN10AJAProcessD2Ev
libajantv2.so.17.0.1.0:_ZN10AJATimeLog10PrintDeltaEPKcb
libajantv2.so.17.0.1.0:_ZN10AJATimeLog10PrintDeltaEb
libajantv2.so.17.0.1.0:_ZN10AJATimeLog10PrintDeltaEmPKcb
libajantv2.so.17.0.1.0:_ZN10AJATimeLog10PrintResetEv
libajantv2.so.17.0.1.0:_ZN10AJATimeLog10PrintValueEl
libajantv2.so.17.0.1.0:_ZN10AJATimeLog10PrintValueElPKc
libajantv2.so.17.0.1.0:_ZN10AJATimeLog5PrintEPKc
libajantv2.so.17.0.1.0:_ZN10AJATimeLog5ResetEv
libajantv2.so.17.0.1.0:_ZN10AJATimeLog8GetDeltaEb
libajantv2.so.17.0.1.0:_ZN10AJATimeLogC1EPKci
libajantv2.so.17.0.1.0:_ZN10AJATimeLogC1ERKNSt7__cxx1112basic_stringIcSt11char_traitsIcESaIcEEEi
libajantv2.so.17.0.1.0:_ZN10AJATimeLogC1Ev
libajantv2.so.17.0.1.0:_ZN10AJATimeLogC2EPKci
libajantv2.so.17.0.1.0:_ZN10AJATimeLogC2ERKNSt7__cxx1112basic_stringIcSt11char_traitsIcESaIcEEEi
libajantv2.so.17.0.1.0:_ZN10AJATimeLogC2Ev
libajantv2.so.17.0.1.0:_ZN10AJATimeLogD0Ev
libajantv2.so.17.0.1.0:_ZN10AJATimeLogD1Ev
libajantv2.so.17.0.1.0:_ZN10AJATimeLogD2Ev
libajantv2.so.17.0.1.0:_ZN10AJAVariant10initializeEv
libajantv2.so.17.0.1.0:_ZN10AJAVariant7SetBoolEb
libajantv2.so.17.0.1.0:_ZN10AJAVariant7SetInt8Ea
libajantv2.so.17.0.1.0:_ZN10AJAVariant8SetFloatEf
libajantv2.so.17.0.1.0:_ZN10AJAVariant8SetInt16Es
libajantv2.so.17.0.1.0:_ZN10AJAVariant8SetInt32Ei
libajantv2.so.17.0.1.0:_ZN10AJAVariant8SetInt64El
libajantv2.so.17.0.1.0:_ZN10AJAVariant8SetUInt8Eh
libajantv2.so.17.0.1.0:_ZN10AJAVariant9SetDoubleEd
libajantv2.so.17.0.1.0:_ZN10AJAVariant9SetStringEPKc
libajantv2.so.17.0.1.0:_ZN10AJAVariant9SetStringEPKcm
libajantv2.so.17.0.1.0:_ZN10AJAVariant9SetStringERKNSt7__cxx1112basic_stringIcSt11char_traitsIcESaIcEEE
libajantv2.so.17.0.1.0:_ZN10AJAVariant9SetUInt16Et
libajantv2.so.17.0.1.0:_ZN10AJAVariant9SetUInt32Ej
libajantv2.so.17.0.1.0:_ZN10AJAVariant9SetUInt64Em
libajantv2.so.17.0.1.0:_ZN10AJAVariantC1E14AJAVariantType
libajantv2.so.17.0.1.0:_ZN10AJAVariantC1EPKc
libajantv2.so.17.0.1.0:_ZN10AJAVariantC1EPKcm
libajantv2.so.17.0.1.0:_ZN10AJAVariantC1ERKNSt7__cxx1112basic_stringIcSt11char_traitsIcESaIcEEE
libajantv2.so.17.0.1.0:_ZN10AJAVariantC1ERKS_
libajantv2.so.17.0.1.0:_ZN10AJAVariantC1Ea
libajantv2.so.17.0.1.0:_ZN10AJAVariantC1Eb
libajantv2.so.17.0.1.0:_ZN10AJAVariantC1Ed
libajantv2.so.17.0.1.0:_ZN10AJAVariantC1Ef
libajantv2.so.17.0.1.0:_ZN10AJAVariantC1Eh
libajantv2.so.17.0.1.0:_ZN10AJAVariantC1Ei
libajantv2.so.17.0.1.0:_ZN10AJAVariantC1Ej
libajantv2.so.17.0.1.0:_ZN10AJAVariantC1El
libajantv2.so.17.0.1.0:_ZN10AJAVariantC1Em
libajantv2.so.17.0.1.0:_ZN10AJAVariantC1Es
libajantv2.so.17.0.1.0:_ZN10AJAVariantC1Et
libajantv2.so.17.0.1.0:_ZN10AJAVariantC1Ev
libajantv2.so.17.0.1.0:_ZN10AJAVariantC2E14AJAVariantType
libajantv2.so.17.0.1.0:_ZN10AJAVariantC2EPKc
libajantv2.so.17.0.1.0:_ZN10AJAVariantC2EPKcm
libajantv2.so.17.0.1.0:_ZN10AJAVariantC2ERKNSt7__cxx1112basic_stringIcSt11char_traitsIcESaIcEEE
libajantv2.so.17.0.1.0:_ZN10AJAVariantC2ERKS_
libajantv2.so.17.0.1.0:_ZN10AJAVariantC2Ea
libajantv2.so.17.0.1.0:_ZN10AJAVariantC2Eb
libajantv2.so.17.0.1.0:_ZN10AJAVariantC2Ed
libajantv2.so.17.0.1.0:_ZN10AJAVariantC2Ef
libajantv2.so.17.0.1.0:_ZN10AJAVariantC2Eh
libajantv2.so.17.0.1.0:_ZN10AJAVariantC2Ei
libajantv2.so.17.0.1.0:_ZN10AJAVariantC2Ej
libajantv2.so.17.0.1.0:_ZN10AJAVariantC2El
libajantv2.so.17.0.1.0:_ZN10AJAVariantC2Em
libajantv2.so.17.0.1.0:_ZN10AJAVariantC2Es
libajantv2.so.17.0.1.0:_ZN10AJAVariantC2Et
libajantv2.so.17.0.1.0:_ZN10AJAVariantC2Ev
libajantv2.so.17.0.1.0:_ZN10AJAVariantaSERKS_
libajantv2.so.17.0.1.0:_ZN10NTV2Buffer10ByteSwap16Ev
libajantv2.so.17.0.1.0:_ZN10NTV2Buffer10ByteSwap32Ev
libajantv2.so.17.0.1.0:_ZN10NTV2Buffer10ByteSwap64Ev
libajantv2.so.17.0.1.0:_ZN10NTV2Buffer10DeallocateEv
libajantv2.so.17.0.1.0:_ZN10NTV2Buffer10SetAndFillEPKvmh
libajantv2.so.17.0.1.0:_ZN10NTV2Buffer12HostPageSizeEv
libajantv2.so.17.0.1.0:_ZN10NTV2Buffer15DefaultPageSizeEv
libajantv2.so.17.0.1.0:_ZN10NTV2Buffer18SetDefaultPageSizeEm
libajantv2.so.17.0.1.0:_ZN10NTV2Buffer3SetEPKvm
libajantv2.so.17.0.1.0:_ZN10NTV2Buffer6PutU8sERKSt6vectorIhSaIhEEm
libajantv2.so.17.0.1.0:_ZN10NTV2Buffer7PutU16sERKSt6vectorItSaItEEmb
libajantv2.so.17.0.1.0:_ZN10NTV2Buffer7PutU32sERKSt6vectorIjSaIjEEmb
libajantv2.so.17.0.1.0:_ZN10NTV2Buffer7PutU64sERKSt6vectorImSaImEEmb
libajantv2.so.17.0.1.0:_ZN10NTV2Buffer7SetFromERKS_
libajantv2.so.17.0.1.0:_ZN10NTV2Buffer8AllocateEmb
libajantv2.so.17.0.1.0:_ZN10NTV2Buffer8CopyFromEPKvj
libajantv2.so.17.0.1.0:_ZN10NTV2Buffer8CopyFromERKS_RK21NTV2SegmentedXferInfo
libajantv2.so.17.0.1.0:_ZN10NTV2Buffer8CopyFromERKS_jjj
libajantv2.so.17.0.1.0:_ZN10NTV2Buffer8SwapWithERS_
libajantv2.so.17.0.1.0:_ZN10NTV2Buffer9RPCDecodeERKSt6vectorIhSaIhEERm
libajantv2.so.17.0.1.0:_ZN10NTV2Buffer9RPCEncodeERSt6vectorIhSaIhEE
libajantv2.so.17.0.1.0:_ZN10NTV2BufferC1EPKvm
libajantv2.so.17.0.1.0:_ZN10NTV2BufferC1ERKS_
libajantv2.so.17.0.1.0:_ZN10NTV2BufferC1Em
libajantv2.so.17.0.1.0:_ZN10NTV2BufferC2EPKvm
libajantv2.so.17.0.1.0:_ZN10NTV2BufferC2ERKS_
libajantv2.so.17.0.1.0:_ZN10NTV2BufferC2Em
libajantv2.so.17.0.1.0:_ZN10NTV2BufferD1Ev
libajantv2.so.17.0.1.0:_ZN10NTV2BufferD2Ev
libajantv2.so.17.0.1.0:_ZN10NTV2BufferaSERKS_
libajantv2.so.17.0.1.0:_ZN10NTV2_RP1889RPCDecodeERKSt6vectorIhSaIhEERm
libajantv2.so.17.0.1.0:_ZN10NTV2_RP1889RPCEncodeERSt6vectorIhSaIhEE
libajantv2.so.17.0.1.0:_ZN11AJAAutoLockC1EP7AJALock
libajantv2.so.17.0.1.0:_ZN11AJAAutoLockC2EP7AJALock
libajantv2.so.17.0.1.0:_ZN11AJAAutoLockD0Ev
libajantv2.so.17.0.1.0:_ZN11AJAAutoLockD1Ev
libajantv2.so.17.0.1.0:_ZN11AJAAutoLockD2Ev
libajantv2.so.17.0.1.0:_ZN11AJAIPSocket10InitializeEv
libajantv2.so.17.0.1.0:_ZN11AJAIPSocket12DeinitializeEv
libajantv2.so.17.0.1.0:_ZN11AJAIPSocket14IsInstantiatedEv
libajantv2.so.17.0.1.0:_ZN11AJAIPSocket15SetSocketOptionEiPKv
libajantv2.so.17.0.1.0:_ZN11AJAIPSocket18GetHostIPAddressesERSt3mapINSt7__cxx1112basic_stringIcSt11char_traitsIcESaIcEEES6_St4lessIS6_ESaISt4pairIKS6_S6_EEESE_
libajantv2.so.17.0.1.0:_ZN11AJAIPSocket4OpenERKNSt7__cxx1112basic_stringIcSt11char_traitsIcESaIcEEEt
libajantv2.so.17.0.1.0:_ZN11AJAIPSocket4PollEPhjR11sockaddr_ini
libajantv2.so.17.0.1.0:_ZN11AJAIPSocket4ReadEPhjR11sockaddr_in
libajantv2.so.17.0.1.0:_ZN11AJAIPSocket5CloseEv
libajantv2.so.17.0.1.0:_ZN11AJAIPSocket5WriteEPKhjR11sockaddr_in
libajantv2.so.17.0.1.0:_ZN11AJAIPSocket6IsOpenEv
libajantv2.so.17.0.1.0:_ZN11AJAIPSocket8ShutdownEi
libajantv2.so.17.0.1.0:_ZN11AJAIPSocketC1Ev
libajantv2.so.17.0.1.0:_ZN11AJAIPSocketC2Ev
libajantv2.so.17.0.1.0:_ZN11AJAIPSocketD0Ev
libajantv2.so.17.0.1.0:_ZN11AJAIPSocketD1Ev
libajantv2.so.17.0.1.0:_ZN11AJAIPSocketD2Ev
libajantv2.so.17.0.1.0:_ZN11AJALockImpl4LockEj
libajantv2.so.17.0.1.0:_ZN11AJALockImpl6UnlockEv
libajantv2.so.17.0.1.0:_ZN11AJALockImplC1EPKc
libajantv2.so.17.0.1.0:_ZN11AJALockImplC2EPKc
libajantv2.so.17.0.1.0:_ZN11AJALockImplD0Ev
libajantv2.so.17.0.1.0:_ZN11AJALockImplD1Ev
libajantv2.so.17.0.1.0:_ZN11AJALockImplD2Ev
libajantv2.so.17.0.1.0:_ZN11AJATimeBase11SetTickRateEl
libajantv2.so.17.0.1.0:_ZN11AJATimeBase12SetAudioRateEl
libajantv2.so.17.0.1.0:_ZN11AJATimeBase12SetFrameRateEll
libajantv2.so.17.0.1.0:_ZN11AJATimeBase12SetToDefaultEv
libajantv2.so.17.0.1.0:_ZN11AJATimeBase13TicksToFramesElb
libajantv2.so.17.0.1.0:_ZN11AJATimeBase14GetSystemTicksEv
libajantv2.so.17.0.1.0:_ZN11AJATimeBase14SecondsToTicksEdb
libajantv2.so.17.0.1.0:_ZN11AJATimeBase14TicksToSamplesElb
libajantv2.so.17.0.1.0:_ZN11AJATimeBase14TicksToSecondsEl
libajantv2.so.17.0.1.0:_ZN11AJATimeBase15SecondsToFramesEdb
libajantv2.so.17.0.1.0:_ZN11AJATimeBase15SetAJAFrameRateE13AJA_FrameRate
libajantv2.so.17.0.1.0:_ZN11AJATimeBase16SamplesToSecondsEl
libajantv2.so.17.0.1.0:_ZN11AJATimeBase16SecondsToSamplesEdb
libajantv2.so.17.0.1.0:_ZN11AJATimeBase17SetFrameTimeScaleEl
libajantv2.so.17.0.1.0:_ZN11AJATimeBase19MicrosecondsToTicksElb
libajantv2.so.17.0.1.0:_ZN11AJATimeBase19TicksToMicrosecondsElb
libajantv2.so.17.0.1.0:_ZN11AJATimeBase20MicrosecondsToFramesElb
libajantv2.so.17.0.1.0:_ZN11AJATimeBase21MicrosecondsToSamplesElb
libajantv2.so.17.0.1.0:_ZN11AJATimeBase21MicrosecondsToSecondsEl
libajantv2.so.17.0.1.0:_ZN11AJATimeBase21SamplesToMicrosecondsElb
libajantv2.so.17.0.1.0:_ZN11AJATimeBase21SecondsToMicrosecondsEdb
libajantv2.so.17.0.1.0:_ZN11AJATimeBase22Nanoseconds100ToFramesElb
libajantv2.so.17.0.1.0:_ZN11AJATimeBase22SetAJAFrameRatePrivateE13AJA_FrameRate
libajantv2.so.17.0.1.0:_ZN11AJATimeBase7ConvertElllbb
libajantv2.so.17.0.1.0:_ZN11AJATimeBase7ConvertElllllbb
libajantv2.so.17.0.1.0:_ZN11AJATimeBaseC1E13AJA_FrameRate
libajantv2.so.17.0.1.0:_ZN11AJATimeBaseC1ERKS_
libajantv2.so.17.0.1.0:_ZN11AJATimeBaseC1Ell
libajantv2.so.17.0.1.0:_ZN11AJATimeBaseC1Elll
libajantv2.so.17.0.1.0:_ZN11AJATimeBaseC1Ev
libajantv2.so.17.0.1.0:_ZN11AJATimeBaseC2E13AJA_FrameRate
libajantv2.so.17.0.1.0:_ZN11AJATimeBaseC2ERKS_
libajantv2.so.17.0.1.0:_ZN11AJATimeBaseC2Ell
libajantv2.so.17.0.1.0:_ZN11AJATimeBaseC2Elll
libajantv2.so.17.0.1.0:_ZN11AJATimeBaseC2Ev
libajantv2.so.17.0.1.0:_ZN11AJATimeBaseD0Ev
libajantv2.so.17.0.1.0:_ZN11AJATimeBaseD1Ev
libajantv2.so.17.0.1.0:_ZN11AJATimeBaseD2Ev
libajantv2.so.17.0.1.0:_ZN11AJATimeBaseaSERKS_
libajantv2.so.17.0.1.0:_ZN11AJATimeCode10QueryRP188EPjS0_S0_RK11AJATimeBaseb
libajantv2.so.17.0.1.0:_ZN11AJATimeCode10QueryRP188ERjS0_S0_RK11AJATimeBaseb
libajantv2.so.17.0.1.0:_ZN11AJATimeCode11QueryStringEPcRK11AJATimeBaseb
libajantv2.so.17.0.1.0:_ZN11AJATimeCode11QueryStringERNSt7__cxx1112basic_stringIcSt11char_traitsIcESaIcEEERK11AJATimeBaseb
libajantv2.so.17.0.1.0:_ZN11AJATimeCode14SetSMPTEStringEPKcRK11AJATimeBase
libajantv2.so.17.0.1.0:_ZN11AJATimeCode14SetWithCleanupERKNSt7__cxx1112basic_stringIcSt11char_traitsIcESaIcEEERK11AJATimeBaseb
libajantv2.so.17.0.1.0:_ZN11AJATimeCode15QueryStringSizeEv
libajantv2.so.17.0.1.0:_ZN11AJATimeCode16QueryIsDropFrameERKNSt7__cxx1112basic_stringIcSt11char_traitsIcESaIcEEE
libajantv2.so.17.0.1.0:_ZN11AJATimeCode16QuerySMPTEStringEPcRK11AJATimeBaseb
libajantv2.so.17.0.1.0:_ZN11AJATimeCode20QuerySMPTEStringSizeEv
libajantv2.so.17.0.1.0:_ZN11AJATimeCode21QueryIsRP188DropFrameEjjj
libajantv2.so.17.0.1.0:_ZN11AJATimeCode3SetERKNSt7__cxx1112basic_stringIcSt11char_traitsIcESaIcEEERK11AJATimeBase
libajantv2.so.17.0.1.0:_ZN11AJATimeCode3SetERKNSt7__cxx1112basic_stringIcSt11char_traitsIcESaIcEEERK11AJATimeBaseb
libajantv2.so.17.0.1.0:_ZN11AJATimeCode3SetEj
libajantv2.so.17.0.1.0:_ZN11AJATimeCode7SetHmsfEjjjjRK11AJATimeBaseb
libajantv2.so.17.0.1.0:_ZN11AJATimeCode8SetRP188EjjjRK11AJATimeBase
libajantv2.so.17.0.1.0:_ZN11AJATimeCodeC1ERKNSt7__cxx1112basic_stringIcSt11char_traitsIcESaIcEEERK11AJATimeBase
libajantv2.so.17.0.1.0:_ZN11AJATimeCodeC1ERKNSt7__cxx1112basic_stringIcSt11char_traitsIcESaIcEEERK11AJATimeBasebb
libajantv2.so.17.0.1.0:_ZN11AJATimeCodeC1ERKS_
libajantv2.so.17.0.1.0:_ZN11AJATimeCodeC1Ej
libajantv2.so.17.0.1.0:_ZN11AJATimeCodeC1Ev
libajantv2.so.17.0.1.0:_ZN11AJATimeCodeC2ERKNSt7__cxx1112basic_stringIcSt11char_traitsIcESaIcEEERK11AJATimeBase
libajantv2.so.17.0.1.0:_ZN11AJATimeCodeC2ERKNSt7__cxx1112basic_stringIcSt11char_traitsIcESaIcEEERK11AJATimeBasebb
libajantv2.so.17.0.1.0:_ZN11AJATimeCodeC2ERKS_
libajantv2.so.17.0.1.0:_ZN11AJATimeCodeC2Ej
libajantv2.so.17.0.1.0:_ZN11AJATimeCodeC2Ev
libajantv2.so.17.0.1.0:_ZN11AJATimeCodeD0Ev
libajantv2.so.17.0.1.0:_ZN11AJATimeCodeD1Ev
libajantv2.so.17.0.1.0:_ZN11AJATimeCodeD2Ev
libajantv2.so.17.0.1.0:_ZN11AJATimeCodeaSERKS_
libajantv2.so.17.0.1.0:_ZN11AJATimeCodemIERKS_
libajantv2.so.17.0.1.0:_ZN11AJATimeCodemIEi
libajantv2.so.17.0.1.0:_ZN11AJATimeCodepLERKS_
libajantv2.so.17.0.1.0:_ZN11AJATimeCodepLEi
libajantv2.so.17.0.1.0:_ZN11FRAME_STAMP16SetInputTimecodeE11NTV2TCIndexRK10NTV2_RP188
libajantv2.so.17.0.1.0:_ZN11FRAME_STAMP7SetFromERK18FRAME_STAMP_STRUCT
libajantv2.so.17.0.1.0:_ZN11FRAME_STAMP9RPCDecodeERKSt6vectorIhSaIhEERm
libajantv2.so.17.0.1.0:_ZN11FRAME_STAMP9RPCEncodeERSt6vectorIhSaIhEE
libajantv2.so.17.0.1.0:_ZN11FRAME_STAMPC1ERKS_
libajantv2.so.17.0.1.0:_ZN11FRAME_STAMPC1Ev
libajantv2.so.17.0.1.0:_ZN11FRAME_STAMPC2ERKS_
libajantv2.so.17.0.1.0:_ZN11FRAME_STAMPC2Ev
libajantv2.so.17.0.1.0:_ZN11FRAME_STAMPD1Ev
libajantv2.so.17.0.1.0:_ZN11FRAME_STAMPD2Ev
libajantv2.so.17.0.1.0:_ZN11FRAME_STAMPaSERKS_
libajantv2.so.17.0.1.0:_ZN11NTV2_HEADER14FourCCToStringB5cxx11Ej
libajantv2.so.17.0.1.0:_ZN11NTV2_HEADER9RPCDecodeERKSt6vectorIhSaIhEERm
libajantv2.so.17.0.1.0:_ZN11NTV2_HEADER9RPCEncodeERSt6vectorIhSaIhEE
libajantv2.so.17.0.1.0:_ZN11NTV2_HEADERC1Ejj
libajantv2.so.17.0.1.0:_ZN11NTV2_HEADERC2Ejj
libajantv2.so.17.0.1.0:_ZN12AJADPXFileIO11GetFileListB5cxx11Ev
libajantv2.so.17.0.1.0:_ZN12AJADPXFileIO11SetFileListERSt6vectorINSt7__cxx1112basic_stringIcSt11char_traitsIcESaIcEEESaIS6_EE
libajantv2.so.17.0.1.0:_ZN12AJADPXFileIO11SetLoopModeEb
libajantv2.so.17.0.1.0:_ZN12AJADPXFileIO12SetPauseModeEb
libajantv2.so.17.0.1.0:_ZN12AJADPXFileIO4ReadERhjRj
libajantv2.so.17.0.1.0:_ZN12AJADPXFileIO4ReadEj
libajantv2.so.17.0.1.0:_ZN12AJADPXFileIO7SetPathERKNSt7__cxx1112basic_stringIcSt11char_traitsIcESaIcEEE
libajantv2.so.17.0.1.0:_ZN12AJADPXFileIO8SetIndexERKj
libajantv2.so.17.0.1.0:_ZN12AJADPXFileIOC1Ev
libajantv2.so.17.0.1.0:_ZN12AJADPXFileIOC2Ev
libajantv2.so.17.0.1.0:_ZN12AJADPXFileIOD0Ev
libajantv2.so.17.0.1.0:_ZN12AJADPXFileIOD1Ev
libajantv2.so.17.0.1.0:_ZN12AJADPXFileIOD2Ev
libajantv2.so.17.0.1.0:_ZN12AJADebugStat11StatKeyNameB5cxx11Ei
libajantv2.so.17.0.1.0:_ZN12AJADebugStat13NamedStatKeysEv
libajantv2.so.17.0.1.0:_ZN12AJADebugStat14DecrementCountEjb
libajantv2.so.17.0.1.0:_ZN12AJADebugStat14IncrementCountEjb
libajantv2.so.17.0.1.0:_ZN12AJADebugStat14SetStatKeyNameEiRKNSt7__cxx1112basic_stringIcSt11char_traitsIcESaIcEEE
libajantv2.so.17.0.1.0:_ZN12AJADebugStat4StopEv
libajantv2.so.17.0.1.0:_ZN12AJADebugStat5StartEv
libajantv2.so.17.0.1.0:_ZN12AJADebugStat8SetValueEj
libajantv2.so.17.0.1.0:_ZN12AJAEventImpl13WaitForSignalEj
libajantv2.so.17.0.1.0:_ZN12AJAEventImpl14GetEventObjectEPm
libajantv2.so.17.0.1.0:_ZN12AJAEventImpl14GetManualResetEPb
libajantv2.so.17.0.1.0:_ZN12AJAEventImpl14SetManualResetEb
libajantv2.so.17.0.1.0:_ZN12AJAEventImpl5ClearEv
libajantv2.so.17.0.1.0:_ZN12AJAEventImpl6SignalEv
libajantv2.so.17.0.1.0:_ZN12AJAEventImpl8GetStateEPb
libajantv2.so.17.0.1.0:_ZN12AJAEventImpl8SetStateEb
libajantv2.so.17.0.1.0:_ZN12AJAEventImplC1EbRKNSt7__cxx1112basic_stringIcSt11char_traitsIcESaIcEEE
libajantv2.so.17.0.1.0:_ZN12AJAEventImplC2EbRKNSt7__cxx1112basic_stringIcSt11char_traitsIcESaIcEEE
libajantv2.so.17.0.1.0:_ZN12AJAEventImplD0Ev
libajantv2.so.17.0.1.0:_ZN12AJAEventImplD1Ev
libajantv2.so.17.0.1.0:_ZN12AJAEventImplD2Ev
libajantv2.so.17.0.1.0:_ZN12AJATCPSocket4OpenERKNSt7__cxx1112basic_stringIcSt11char_traitsIcESaIcEEEt
libajantv2.so.17.0.1.0:_ZN12AJATCPSocket4ReadEPhj
libajantv2.so.17.0.1.0:_ZN12AJATCPSocket4ReadEPhjR11sockaddr_in
libajantv2.so.17.0.1.0:_ZN12AJATCPSocket5WriteEPKhj
libajantv2.so.17.0.1.0:_ZN12AJATCPSocket5WriteEPKhjR11sockaddr_in
libajantv2.so.17.0.1.0:_ZN12AJATCPSocket6AcceptEv
libajantv2.so.17.0.1.0:_ZN12AJATCPSocket6ListenEv
libajantv2.so.17.0.1.0:_ZN12AJATCPSocket7ConnectERKNSt7__cxx1112basic_stringIcSt11char_traitsIcESaIcEEEt
libajantv2.so.17.0.1.0:_ZN12AJATCPSocketC1Ev
libajantv2.so.17.0.1.0:_ZN12AJATCPSocketC2Ev
libajantv2.so.17.0.1.0:_ZN12AJATCPSocketD0Ev
libajantv2.so.17.0.1.0:_ZN12AJATCPSocketD1Ev
libajantv2.so.17.0.1.0:_ZN12AJATCPSocketD2Ev
libajantv2.so.17.0.1.0:_ZN12AJAUDPSocket4OpenERKNSt7__cxx1112basic_stringIcSt11char_traitsIcESaIcEEEt
libajantv2.so.17.0.1.0:_ZN12AJAUDPSocket4PollEPhjR11sockaddr_ini
libajantv2.so.17.0.1.0:_ZN12AJAUDPSocket4ReadEPhjR11sockaddr_in
libajantv2.so.17.0.1.0:_ZN12AJAUDPSocket5WriteEPKhjR11sockaddr_in
libajantv2.so.17.0.1.0:_ZN12AJAUDPSocketC1Ev
libajantv2.so.17.0.1.0:_ZN12AJAUDPSocketC2Ev
libajantv2.so.17.0.1.0:_ZN12AJAUDPSocketD0Ev
libajantv2.so.17.0.1.0:_ZN12AJAUDPSocketD1Ev
libajantv2.so.17.0.1.0:_ZN12AJAUDPSocketD2Ev
libajantv2.so.17.0.1.0:_ZN12AJAWavWriter11writeHeaderEv
libajantv2.so.17.0.1.0:_ZN12AJAWavWriter12writeRawDataEPKcj
libajantv2.so.17.0.1.0:_ZN12AJAWavWriter12writeRawDataEPcj
libajantv2.so.17.0.1.0:_ZN12AJAWavWriter16writeRaw_uint8_tEhj
libajantv2.so.17.0.1.0:_ZN12AJAWavWriter17writeRaw_uint16_tEtj
libajantv2.so.17.0.1.0:_ZN12AJAWavWriter17writeRaw_uint32_tEjj
libajantv2.so.17.0.1.0:_ZN12AJAWavWriter4OpenERKNSt7__cxx1112basic_stringIcSt11char_traitsIcESaIcEEEi17AJAFileProperties
libajantv2.so.17.0.1.0:_ZN12AJAWavWriter4openEv
libajantv2.so.17.0.1.0:_ZN12AJAWavWriter5CloseEv
libajantv2.so.17.0.1.0:_ZN12AJAWavWriter5closeEv
libajantv2.so.17.0.1.0:_ZN12AJAWavWriter5writeEPKcj
libajantv2.so.17.0.1.0:_ZN12AJAWavWriterC1ERKNSt7__cxx1112basic_stringIcSt11char_traitsIcESaIcEEERK23AJAWavWriterAudioFormatRK23AJAWavWriterVideoFormatS7_21AJAWavWriterChunkFlagb
libajantv2.so.17.0.1.0:_ZN12AJAWavWriterC2ERKNSt7__cxx1112basic_stringIcSt11char_traitsIcESaIcEEERK23AJAWavWriterAudioFormatRK23AJAWavWriterVideoFormatS7_21AJAWavWriterChunkFlagb
libajantv2.so.17.0.1.0:_ZN12CNTV2Bitfile12SetLastErrorERKNSt7__cxx1112basic_stringIcSt11char_traitsIcESaIcEEEb
libajantv2.so.17.0.1.0:_ZN12CNTV2Bitfile17ConvertToDesignIDE12NTV2DeviceID
libajantv2.so.17.0.1.0:_ZN12CNTV2Bitfile17ConvertToDeviceIDEjj
libajantv2.so.17.0.1.0:_ZN12CNTV2Bitfile17GetFileByteStreamER10NTV2Buffer
libajantv2.so.17.0.1.0:_ZN12CNTV2Bitfile18ConvertToBitfileIDE12NTV2DeviceID
libajantv2.so.17.0.1.0:_ZN12CNTV2Bitfile20GetProgramByteStreamER10NTV2Buffer
libajantv2.so.17.0.1.0:_ZN12CNTV2Bitfile21ParseHeaderFromBufferB5cxx11EPKhm
libajantv2.so.17.0.1.0:_ZN12CNTV2Bitfile21ParseHeaderFromBufferB5cxx11ERK10NTV2Buffer
libajantv2.so.17.0.1.0:_ZN12CNTV2Bitfile28GetPrimaryHardwareDesignNameB5cxx11E12NTV2DeviceID
libajantv2.so.17.0.1.0:_ZN12CNTV2Bitfile33GetDeviceIDFromHardwareDesignNameERKNSt7__cxx1112basic_stringIcSt11char_traitsIcESaIcEEE
libajantv2.so.17.0.1.0:_ZN12CNTV2Bitfile4OpenERKNSt7__cxx1112basic_stringIcSt11char_traitsIcESaIcEEE
libajantv2.so.17.0.1.0:_ZN12CNTV2Bitfile5CloseEv
libajantv2.so.17.0.1.0:_ZN12CNTV2BitfileC1Ev
libajantv2.so.17.0.1.0:_ZN12CNTV2BitfileC2Ev
libajantv2.so.17.0.1.0:_ZN12CNTV2BitfileD0Ev
libajantv2.so.17.0.1.0:_ZN12CNTV2BitfileD1Ev
libajantv2.so.17.0.1.0:_ZN12CNTV2BitfileD2Ev
libajantv2.so.17.0.1.0:_ZN12CNTV2MCSfile10GetMCSInfoEv
libajantv2.so.17.0.1.0:_ZN12CNTV2MCSfile12GetPartitionERSt6vectorIhSaIhEEtRtb
libajantv2.so.17.0.1.0:_ZN12CNTV2MCSfile12SetLastErrorERKNSt7__cxx1112basic_stringIcSt11char_traitsIcESaIcEEEb
libajantv2.so.17.0.1.0:_ZN12CNTV2MCSfile13IRecordOutputEPKc
libajantv2.so.17.0.1.0:_ZN12CNTV2MCSfile13InsertBitFileERKNSt7__cxx1112basic_stringIcSt11char_traitsIcESaIcEEES7_S7_
libajantv2.so.17.0.1.0:_ZN12CNTV2MCSfile16GetMCSHeaderInfoERKNSt7__cxx1112basic_stringIcSt11char_traitsIcESaIcEEE
libajantv2.so.17.0.1.0:_ZN12CNTV2MCSfile17GetFileByteStreamEj
libajantv2.so.17.0.1.0:_ZN12CNTV2MCSfile18ParseCurrentRecordER15IntelRecordInfo
libajantv2.so.17.0.1.0:_ZN12CNTV2MCSfile22GetCurrentParsedRecordER15IntelRecordInfo
libajantv2.so.17.0.1.0:_ZN12CNTV2MCSfile31FindExtendedLinearAddressRecordEt
libajantv2.so.17.0.1.0:_ZN12CNTV2MCSfile4OpenERKNSt7__cxx1112basic_stringIcSt11char_traitsIcESaIcEEE
libajantv2.so.17.0.1.0:_ZN12CNTV2MCSfile5CloseEv
libajantv2.so.17.0.1.0:_ZN12CNTV2MCSfileC1Ev
libajantv2.so.17.0.1.0:_ZN12CNTV2MCSfileC2Ev
libajantv2.so.17.0.1.0:_ZN12CNTV2MCSfileD0Ev
libajantv2.so.17.0.1.0:_ZN12CNTV2MCSfileD1Ev
libajantv2.so.17.0.1.0:_ZN12CNTV2MCSfileD2Ev
libajantv2.so.17.0.1.0:_ZN12CNTV2MailBox10SetChannelEjj
libajantv2.so.17.0.1.0:_ZN12CNTV2MailBox10startTimerEv
libajantv2.so.17.0.1.0:_ZN12CNTV2MailBox11getFeaturesEv
libajantv2.so.17.0.1.0:_ZN12CNTV2MailBox11getResponseERNSt7__cxx1112basic_stringIcSt11char_traitsIcESaIcEEE
libajantv2.so.17.0.1.0:_ZN12CNTV2MailBox11waitRxReadyEj
libajantv2.so.17.0.1.0:_ZN12CNTV2MailBox11waitTxReadyEj
libajantv2.so.17.0.1.0:_ZN12CNTV2MailBox14AcquireMailboxEv
libajantv2.so.17.0.1.0:_ZN12CNTV2MailBox14ReleaseMailboxEv
libajantv2.so.17.0.1.0:_ZN12CNTV2MailBox14getElapsedTimeEv
libajantv2.so.17.0.1.0:_ZN12CNTV2MailBox16getSystemCounterEv
libajantv2.so.17.0.1.0:_ZN12CNTV2MailBox18getSystemFrequencyEv
libajantv2.so.17.0.1.0:_ZN12CNTV2MailBox19ReadChannelRegisterEjRjjj
libajantv2.so.17.0.1.0:_ZN12CNTV2MailBox20WriteChannelRegisterEjjjj
libajantv2.so.17.0.1.0:_ZN12CNTV2MailBox21getSystemMillisecondsEv
libajantv2.so.17.0.1.0:_ZN12CNTV2MailBox6rcvMsgEj
libajantv2.so.17.0.1.0:_ZN12CNTV2MailBox6readMBERjj
libajantv2.so.17.0.1.0:_ZN12CNTV2MailBox7rxReadyEv
libajantv2.so.17.0.1.0:_ZN12CNTV2MailBox7sendMsgEPcj
libajantv2.so.17.0.1.0:_ZN12CNTV2MailBox7sendMsgEj
libajantv2.so.17.0.1.0:_ZN12CNTV2MailBox7waitSOMEj
libajantv2.so.17.0.1.0:_ZN12CNTV2MailBox7writeMBEjj
libajantv2.so.17.0.1.0:_ZN12CNTV2MailBox8getErrorERNSt7__cxx1112basic_stringIcSt11char_traitsIcESaIcEEE
libajantv2.so.17.0.1.0:_ZN12CNTV2MailBox9getStatusEv
libajantv2.so.17.0.1.0:_ZN12CNTV2MailBoxC1ER9CNTV2Card
libajantv2.so.17.0.1.0:_ZN12CNTV2MailBoxC2ER9CNTV2Card
libajantv2.so.17.0.1.0:_ZN12CNTV2MailBoxD1Ev
libajantv2.so.17.0.1.0:_ZN12CNTV2MailBoxD2Ev
libajantv2.so.17.0.1.0:_ZN12IPVNetConfig4initEv
libajantv2.so.17.0.1.0:_ZN12IPVNetConfigeqERKS_
libajantv2.so.17.0.1.0:_ZN12IPVNetConfigneERKS_
libajantv2.so.17.0.1.0:_ZN12NTV2_TRAILER9RPCDecodeERKSt6vectorIhSaIhEERm
libajantv2.so.17.0.1.0:_ZN12NTV2_TRAILER9RPCEncodeERSt6vectorIhSaIhEE
libajantv2.so.17.0.1.0:_ZN12NTV2_TRAILERC1Ev
libajantv2.so.17.0.1.0:_ZN12NTV2_TRAILERC2Ev
libajantv2.so.17.0.1.0:_ZN12RP188_STRUCT9RPCDecodeERKSt6vectorIhSaIhEERm
libajantv2.so.17.0.1.0:_ZN12RP188_STRUCT9RPCEncodeERSt6vectorIhSaIhEE
libajantv2.so.17.0.1.0:_ZN12SDRAMAuditor12AssessDeviceER9CNTV2Cardb
libajantv2.so.17.0.1.0:_ZN12SDRAMAuditor14TagMemoryBlockEjjRKNSt7__cxx1112basic_stringIcSt11char_traitsIcESaIcEEE
libajantv2.so.17.0.1.0:_ZN12SDRAMAuditor14TagVideoFramesER9CNTV2Card
libajantv2.so.17.0.1.0:_ZN12SDRAMAuditor15CoalesceRegionsERKSt6vectorIjSaIjEES4_S4_
libajantv2.so.17.0.1.0:_ZN12SDRAMAuditor15TagAudioBuffersER9CNTV2Cardb
libajantv2.so.17.0.1.0:_ZN13AJADiskStatus20GetFreeAndTotalSpaceEPKcRdS2_21AJADiskStatusUnitType
libajantv2.so.17.0.1.0:_ZN13AJADiskStatusC1Ev
libajantv2.so.17.0.1.0:_ZN13AJADiskStatusC2Ev
libajantv2.so.17.0.1.0:_ZN13AJADiskStatusD0Ev
libajantv2.so.17.0.1.0:_ZN13AJADiskStatusD1Ev
libajantv2.so.17.0.1.0:_ZN13AJADiskStatusD2Ev
libajantv2.so.17.0.1.0:_ZN13AJARunAverage11MarkAverageEl
libajantv2.so.17.0.1.0:_ZN13AJARunAverage4MarkEl
libajantv2.so.17.0.1.0:_ZN13AJARunAverage5ResetEv
libajantv2.so.17.0.1.0:_ZN13AJARunAverage6ResizeEm
libajantv2.so.17.0.1.0:_ZN13AJARunAverage7AverageEv
libajantv2.so.17.0.1.0:_ZN13AJARunAverage9LastValueEv
libajantv2.so.17.0.1.0:_ZN13AJASystemInfo6RescanE21AJASystemInfoSections
libajantv2.so.17.0.1.0:_ZN13AJASystemInfo8ToStringERKSt6vectorISt4pairINSt7__cxx1112basic_stringIcSt11char_traitsIcESaIcEEES7_ESaIS8_EEmm
libajantv2.so.17.0.1.0:_ZN13AJASystemInfoC1E23AJASystemInfoMemoryUnit21AJASystemInfoSections
libajantv2.so.17.0.1.0:_ZN13AJASystemInfoC2E23AJASystemInfoMemoryUnit21AJASystemInfoSections
libajantv2.so.17.0.1.0:_ZN13AJASystemInfoD0Ev
libajantv2.so.17.0.1.0:_ZN13AJASystemInfoD1Ev
libajantv2.so.17.0.1.0:_ZN13AJASystemInfoD2Ev
libajantv2.so.17.0.1.0:_ZN13AJAThreadImpl11GetPriorityEP17AJAThreadPriority
libajantv2.so.17.0.1.0:_ZN13AJAThreadImpl11GetThreadIdEv
libajantv2.so.17.0.1.0:_ZN13AJAThreadImpl11SetPriorityE17AJAThreadPriority
libajantv2.so.17.0.1.0:_ZN13AJAThreadImpl11SetRealTimeE23AJAThreadRealTimePolicyi
libajantv2.so.17.0.1.0:_ZN13AJAThreadImpl13SetThreadNameEPKc
libajantv2.so.17.0.1.0:_ZN13AJAThreadImpl15IsCurrentThreadEv
libajantv2.so.17.0.1.0:_ZN13AJAThreadImpl16ThreadProcStaticEPv
libajantv2.so.17.0.1.0:_ZN13AJAThreadImpl4KillEj
libajantv2.so.17.0.1.0:_ZN13AJAThreadImpl4StopEj
libajantv2.so.17.0.1.0:_ZN13AJAThreadImpl5StartEv
libajantv2.so.17.0.1.0:_ZN13AJAThreadImpl6ActiveEv
libajantv2.so.17.0.1.0:_ZN13AJAThreadImpl6AttachEPFvP9AJAThreadPvES2_
libajantv2.so.17.0.1.0:_ZN13AJAThreadImplC1EP9AJAThread
libajantv2.so.17.0.1.0:_ZN13AJAThreadImplC2EP9AJAThread
libajantv2.so.17.0.1.0:_ZN13AJAThreadImplD0Ev
libajantv2.so.17.0.1.0:_ZN13AJAThreadImplD1Ev
libajantv2.so.17.0.1.0:_ZN13AJAThreadImplD2Ev
libajantv2.so.17.0.1.0:_ZN13HDRTPGeometry4InitERjS0_
libajantv2.so.17.0.1.0:_ZN13NTV2Bitstream9RPCDecodeERKSt6vectorIhSaIhEERm
libajantv2.so.17.0.1.0:_ZN13NTV2Bitstream9RPCEncodeERSt6vectorIhSaIhEE
libajantv2.so.17.0.1.0:_ZN13NTV2Bitstream9SetBufferERK10NTV2Buffer
libajantv2.so.17.0.1.0:_ZN13NTV2BitstreamC1EPKjjj
libajantv2.so.17.0.1.0:_ZN13NTV2BitstreamC1ERK10NTV2Bufferj
libajantv2.so.17.0.1.0:_ZN13NTV2BitstreamC1Ev
libajantv2.so.17.0.1.0:_ZN13NTV2BitstreamC2EPKjjj
libajantv2.so.17.0.1.0:_ZN13NTV2BitstreamC2ERK10NTV2Bufferj
libajantv2.so.17.0.1.0:_ZN13NTV2BitstreamC2Ev
libajantv2.so.17.0.1.0:_ZN13NTV2DmaStream10SetChannelE11NTV2Channel
libajantv2.so.17.0.1.0:_ZN13NTV2DmaStream9SetBufferERK10NTV2Buffer
libajantv2.so.17.0.1.0:_ZN13NTV2DmaStreamC1E11NTV2Channelj
libajantv2.so.17.0.1.0:_ZN13NTV2DmaStreamC1EPKjj11NTV2Channelj
libajantv2.so.17.0.1.0:_ZN13NTV2DmaStreamC1ERK10NTV2Buffer11NTV2Channelj
libajantv2.so.17.0.1.0:_ZN13NTV2DmaStreamC1Ev
libajantv2.so.17.0.1.0:_ZN13NTV2DmaStreamC2E11NTV2Channelj
libajantv2.so.17.0.1.0:_ZN13NTV2DmaStreamC2EPKjj11NTV2Channelj
libajantv2.so.17.0.1.0:_ZN13NTV2DmaStreamC2ERK10NTV2Buffer11NTV2Channelj
libajantv2.so.17.0.1.0:_ZN13NTV2DmaStreamC2Ev
libajantv2.so.17.0.1.0:_ZN13RoutingExpert11GetInstanceEb
libajantv2.so.17.0.1.0:_ZN13RoutingExpert12NumInstancesEv
libajantv2.so.17.0.1.0:_ZN13RoutingExpert14WidgetIDToTypeE12NTV2WidgetID
libajantv2.so.17.0.1.0:_ZN13RoutingExpert15DisposeInstanceEv
libajantv2.so.17.0.1.0:_ZN13RoutingExpert17WidgetIDToChannelE12NTV2WidgetID
libajantv2.so.17.0.1.0:_ZN13RoutingExpert19InitInputXpt2StringEv
libajantv2.so.17.0.1.0:_ZN13RoutingExpert20InitOutputXpt2StringEv
libajantv2.so.17.0.1.0:_ZN13RoutingExpert22InitInputXpt2WidgetIDsEv
libajantv2.so.17.0.1.0:_ZN13RoutingExpert22InitWidgetIDToChannelsEv
libajantv2.so.17.0.1.0:_ZN13RoutingExpert23InitOutputXpt2WidgetIDsEv
libajantv2.so.17.0.1.0:_ZN13RoutingExpert25InitWidgetIDToWidgetTypesEv
libajantv2.so.17.0.1.0:_ZN13RoutingExpert26WidgetIDFromTypeAndChannelE14NTV2WidgetType11NTV2Channel
libajantv2.so.17.0.1.0:_ZN13RoutingExpertC1Ev
libajantv2.so.17.0.1.0:_ZN13RoutingExpertC2Ev
libajantv2.so.17.0.1.0:_ZN13RoutingExpertD1Ev
libajantv2.so.17.0.1.0:_ZN13RoutingExpertD2Ev
libajantv2.so.17.0.1.0:_ZN13rx_2110Config4initEv
libajantv2.so.17.0.1.0:_ZN13rx_2110ConfigeqERKS_
libajantv2.so.17.0.1.0:_ZN13rx_2110ConfigneERKS_
libajantv2.so.17.0.1.0:_ZN13tx_2110Config4initEv
libajantv2.so.17.0.1.0:_ZN13tx_2110ConfigeqERKS_
libajantv2.so.17.0.1.0:_ZN13tx_2110ConfigneERKS_
libajantv2.so.17.0.1.0:_ZN14AJAPerformance17StandardDeviationEv
libajantv2.so.17.0.1.0:_ZN14AJAPerformance4MeanEv
libajantv2.so.17.0.1.0:_ZN14AJAPerformance4NameB5cxx11Ev
libajantv2.so.17.0.1.0:_ZN14AJAPerformance4StopEv
libajantv2.so.17.0.1.0:_ZN14AJAPerformance5StartEv
libajantv2.so.17.0.1.0:_ZN14AJAPerformance6ExtrasB5cxx11Ev
libajantv2.so.17.0.1.0:_ZN14AJAPerformance6ReportERKNSt7__cxx1112basic_stringIcSt11char_traitsIcESaIcEEEPKci
libajantv2.so.17.0.1.0:_ZN14AJAPerformance7EntriesEv
libajantv2.so.17.0.1.0:_ZN14AJAPerformance7MaxTimeEv
libajantv2.so.17.0.1.0:_ZN14AJAPerformance7MinTimeEv
libajantv2.so.17.0.1.0:_ZN14AJAPerformance8VarianceEv
libajantv2.so.17.0.1.0:_ZN14AJAPerformance9PrecisionEv
libajantv2.so.17.0.1.0:_ZN14AJAPerformance9SetExtrasERKSt3mapINSt7__cxx1112basic_stringIcSt11char_traitsIcESaIcEEEmSt4lessIS6_ESaISt4pairIKS6_mEEE
libajantv2.so.17.0.1.0:_ZN14AJAPerformance9TotalTimeEv
libajantv2.so.17.0.1.0:_ZN14AJAPerformanceC1E17AJATimerPrecisionm
libajantv2.so.17.0.1.0:_ZN14AJAPerformanceC1ERKNSt7__cxx1112basic_stringIcSt11char_traitsIcESaIcEEE17AJATimerPrecisionm
libajantv2.so.17.0.1.0:_ZN14AJAPerformanceC1ERKNSt7__cxx1112basic_stringIcSt11char_traitsIcESaIcEEERKSt3mapIS5_mSt4lessIS5_ESaISt4pairIS6_mEEE17AJATimerPrecisionm
libajantv2.so.17.0.1.0:_ZN14AJAPerformanceC2E17AJATimerPrecisionm
libajantv2.so.17.0.1.0:_ZN14AJAPerformanceC2ERKNSt7__cxx1112basic_stringIcSt11char_traitsIcESaIcEEE17AJATimerPrecisionm
libajantv2.so.17.0.1.0:_ZN14AJAPerformanceC2ERKNSt7__cxx1112basic_stringIcSt11char_traitsIcESaIcEEERKSt3mapIS5_mSt4lessIS5_ESaISt4pairIS6_mEEE17AJATimerPrecisionm
libajantv2.so.17.0.1.0:_ZN14AJAPerformanceD1Ev
libajantv2.so.17.0.1.0:_ZN14AJAPerformanceD2Ev
libajantv2.so.17.0.1.0:_ZN14AJAPersistence10FileExistsEv
libajantv2.so.17.0.1.0:_ZN14AJAPersistence12GetValuesIntERKNSt7__cxx1112basic_stringIcSt11char_traitsIcESaIcEEERSt6vectorIS5_SaIS5_EERS8_IiSaIiEE
libajantv2.so.17.0.1.0:_ZN14AJAPersistence13ClearPrefFileEv
libajantv2.so.17.0.1.0:_ZN14AJAPersistence13GetValuesBoolERKNSt7__cxx1112basic_stringIcSt11char_traitsIcESaIcEEERSt6vectorIS5_SaIS5_EERS8_IbSaIbEE
libajantv2.so.17.0.1.0:_ZN14AJAPersistence14DebugLogAddKeyERKNSt7__cxx1112basic_stringIcSt11char_traitsIcESaIcEEE
libajantv2.so.17.0.1.0:_ZN14AJAPersistence14DebugLogHasKeyERKNSt7__cxx1112basic_stringIcSt11char_traitsIcESaIcEEE
libajantv2.so.17.0.1.0:_ZN14AJAPersistence14DeletePrefFileEb
libajantv2.so.17.0.1.0:_ZN14AJAPersistence14PathToPrefFileERNSt7__cxx1112basic_stringIcSt11char_traitsIcESaIcEEE
libajantv2.so.17.0.1.0:_ZN14AJAPersistence15DebugLogHasKeysEv
libajantv2.so.17.0.1.0:_ZN14AJAPersistence15GetValuesDoubleERKNSt7__cxx1112basic_stringIcSt11char_traitsIcESaIcEEERSt6vectorIS5_SaIS5_EERS8_IdSaIdEE
libajantv2.so.17.0.1.0:_ZN14AJAPersistence15GetValuesStringERKNSt7__cxx1112basic_stringIcSt11char_traitsIcESaIcEEERSt6vectorIS5_SaIS5_EESB_
libajantv2.so.17.0.1.0:_ZN14AJAPersistence17DebugLogRemoveAllEv
libajantv2.so.17.0.1.0:_ZN14AJAPersistence17DebugLogRemoveKeyERKNSt7__cxx1112basic_stringIcSt11char_traitsIcESaIcEEE
libajantv2.so.17.0.1.0:_ZN14AJAPersistence18StorageHealthCheckERiRNSt7__cxx1112basic_stringIcSt11char_traitsIcESaIcEEE
libajantv2.so.17.0.1.0:_ZN14AJAPersistence8GetValueERKNSt7__cxx1112basic_stringIcSt11char_traitsIcESaIcEEEPv18AJAPersistenceTypem
libajantv2.so.17.0.1.0:_ZN14AJAPersistence8SetValueERKNSt7__cxx1112basic_stringIcSt11char_traitsIcESaIcEEEPKv18AJAPersistenceTypem
libajantv2.so.17.0.1.0:_ZN14AJAPersistence9GetParamsERNSt7__cxx1112basic_stringIcSt11char_traitsIcESaIcEEES6_S6_Rb
libajantv2.so.17.0.1.0:_ZN14AJAPersistence9SetParamsERKNSt7__cxx1112basic_stringIcSt11char_traitsIcESaIcEEES7_S7_b
libajantv2.so.17.0.1.0:_ZN14AJAPersistenceC1ERKNSt7__cxx1112basic_stringIcSt11char_traitsIcESaIcEEES7_S7_b
libajantv2.so.17.0.1.0:_ZN14AJAPersistenceC1Ev
libajantv2.so.17.0.1.0:_ZN14AJAPersistenceC2ERKNSt7__cxx1112basic_stringIcSt11char_traitsIcESaIcEEES7_S7_b
libajantv2.so.17.0.1.0:_ZN14AJAPersistenceC2Ev
libajantv2.so.17.0.1.0:_ZN14AJAPersistenceD0Ev
libajantv2.so.17.0.1.0:_ZN14AJAPersistenceD1Ev
libajantv2.so.17.0.1.0:_ZN14AJAPersistenceD2Ev
libajantv2.so.17.0.1.0:_ZN14AJAPixelFormat11QueryFourCCEv
libajantv2.so.17.0.1.0:_ZN14AJAPixelFormat12ConvertWidthE12AJAScaleTypeiRi
libajantv2.so.17.0.1.0:_ZN14AJAPixelFormat12QueryIsValidE15AJA_PixelFormat
libajantv2.so.17.0.1.0:_ZN14AJAPixelFormat12QueryIsValidEv
libajantv2.so.17.0.1.0:_ZN14AJAPixelFormat13ConvertAspectE12AJAScaleTypeiiRiS1_
libajantv2.so.17.0.1.0:_ZN14AJAPixelFormat13QueryBitDepthE15AJA_PixelFormat
libajantv2.so.17.0.1.0:_ZN14AJAPixelFormat13QueryBitDepthEv
libajantv2.so.17.0.1.0:_ZN14AJAPixelFormat14QueryScaleTypeEiiR15AJA_PixelFormatR12AJAScaleType
libajantv2.so.17.0.1.0:_ZN14AJAPixelFormat14QueryScaleTypeEv
libajantv2.so.17.0.1.0:_ZN14AJAPixelFormat15QueryIsScalableEjjjjP15AJA_PixelFormatS1_
libajantv2.so.17.0.1.0:_ZN14AJAPixelFormat15QueryPlaneCountE15AJA_PixelFormat
libajantv2.so.17.0.1.0:_ZN14AJAPixelFormat15QueryPlaneCountEv
libajantv2.so.17.0.1.0:_ZN14AJAPixelFormat16QueryDisplayNameEv
libajantv2.so.17.0.1.0:_ZN14AJAPixelFormat18QueryFormatAtIndexEiRS_
libajantv2.so.17.0.1.0:_ZN14AJAPixelFormat18QuerySubSampleTypeE15AJA_PixelFormat
libajantv2.so.17.0.1.0:_ZN14AJAPixelFormat18QuerySubSampleTypeEv
libajantv2.so.17.0.1.0:_ZN14AJAPixelFormat19QueryFullScaleWidthEii
libajantv2.so.17.0.1.0:_ZN14AJAPixelFormat22QueryScaledPixelFormatEii
libajantv2.so.17.0.1.0:_ZN14AJAPixelFormat26QueryNumberPossibleFormatsEv
libajantv2.so.17.0.1.0:_ZN14AJAPixelFormat3SetE15AJA_PixelFormat
libajantv2.so.17.0.1.0:_ZN14AJAPixelFormat5QueryEv
libajantv2.so.17.0.1.0:_ZN14AJAPixelFormat8QueryRgbEv
libajantv2.so.17.0.1.0:_ZN14AJAPixelFormatC1E15AJA_PixelFormat
libajantv2.so.17.0.1.0:_ZN14AJAPixelFormatC1Ev
libajantv2.so.17.0.1.0:_ZN14AJAPixelFormatC2E15AJA_PixelFormat
libajantv2.so.17.0.1.0:_ZN14AJAPixelFormatC2Ev
libajantv2.so.17.0.1.0:_ZN14AJAPixelFormatD0Ev
libajantv2.so.17.0.1.0:_ZN14AJAPixelFormatD1Ev
libajantv2.so.17.0.1.0:_ZN14AJAPixelFormatD2Ev
libajantv2.so.17.0.1.0:_ZN14AJAProcessImpl6GetPidEv
libajantv2.so.17.0.1.0:_ZN14AJAProcessImpl7IsValidEm
libajantv2.so.17.0.1.0:_ZN14AJAProcessImpl8ActivateEPKc
libajantv2.so.17.0.1.0:_ZN14AJAProcessImpl8ActivateEm
libajantv2.so.17.0.1.0:_ZN14AJAProcessImplC1Ev
libajantv2.so.17.0.1.0:_ZN14AJAProcessImplC2Ev
libajantv2.so.17.0.1.0:_ZN14AJAProcessImplD0Ev
libajantv2.so.17.0.1.0:_ZN14AJAProcessImplD1Ev
libajantv2.so.17.0.1.0:_ZN14AJAProcessImplD2Ev
libajantv2.so.17.0.1.0:_ZN14CNTV2CSCMatrix10CoeffEqualEddd
libajantv2.so.17.0.1.0:_ZN14CNTV2CSCMatrix10InitMatrixE24NTV2ColorSpaceMatrixType
libajantv2.so.17.0.1.0:_ZN14CNTV2CSCMatrix11PreMultiplyERKS_
libajantv2.so.17.0.1.0:_ZN14CNTV2CSCMatrix12PostMultiplyERKS_
libajantv2.so.17.0.1.0:_ZN14CNTV2CSCMatrix12SetHueRotateEd
libajantv2.so.17.0.1.0:_ZN14CNTV2CSCMatrix13AddPreOffsetsEsss
libajantv2.so.17.0.1.0:_ZN14CNTV2CSCMatrix13IsUnityMatrixEv
libajantv2.so.17.0.1.0:_ZN14CNTV2CSCMatrix13SetPreOffsetsEsss
libajantv2.so.17.0.1.0:_ZN14CNTV2CSCMatrix14AddPostOffsetsEsss
libajantv2.so.17.0.1.0:_ZN14CNTV2CSCMatrix14SetCoefficientE12NTV2CSCCoeffd
libajantv2.so.17.0.1.0:_ZN14CNTV2CSCMatrix14SetPostOffsetsEsss
libajantv2.so.17.0.1.0:_ZN14CNTV2CSCMatrix7IsEqualERKS_d
libajantv2.so.17.0.1.0:_ZN14CNTV2CSCMatrix7SetGainEddd
libajantv2.so.17.0.1.0:_ZN14CNTV2CSCMatrix9SetOffsetE13NTV2CSCOffsets
libajantv2.so.17.0.1.0:_ZN14CNTV2CSCMatrixC1E24NTV2ColorSpaceMatrixType
libajantv2.so.17.0.1.0:_ZN14CNTV2CSCMatrixC2E24NTV2ColorSpaceMatrixType
libajantv2.so.17.0.1.0:_ZN14NTV2BufferLock9SetBufferERK10NTV2Buffer
libajantv2.so.17.0.1.0:_ZN14NTV2BufferLockC1EPKjjj
libajantv2.so.17.0.1.0:_ZN14NTV2BufferLockC1ERK10NTV2Bufferj
libajantv2.so.17.0.1.0:_ZN14NTV2BufferLockC1Emj
libajantv2.so.17.0.1.0:_ZN14NTV2BufferLockC1Ev
libajantv2.so.17.0.1.0:_ZN14NTV2BufferLockC2EPKjjj
libajantv2.so.17.0.1.0:_ZN14NTV2BufferLockC2ERK10NTV2Bufferj
libajantv2.so.17.0.1.0:_ZN14NTV2BufferLockC2Emj
libajantv2.so.17.0.1.0:_ZN14NTV2BufferLockC2Ev
libajantv2.so.17.0.1.0:_ZN14NTV2Dictionary10UpdateFromERKS_
libajantv2.so.17.0.1.0:_ZN14NTV2Dictionary7AddFromERKS_
libajantv2.so.17.0.1.0:_ZN14RegisterExpert11GetInstanceEb
libajantv2.so.17.0.1.0:_ZN14RegisterExpert15DisposeInstanceEv
libajantv2.so.17.0.1.0:_ZN15AJATimeCodeBurn12BurnTimeCodeEPcPKcj
libajantv2.so.17.0.1.0:_ZN15AJATimeCodeBurn12BurnTimeCodeEPvRKNSt7__cxx1112basic_stringIcSt11char_traitsIcESaIcEEEj
libajantv2.so.17.0.1.0:_ZN15AJATimeCodeBurn14writeV210PixelEPPciii
libajantv2.so.17.0.1.0:_ZN15AJATimeCodeBurn18RenderTimeCodeFontE15AJA_PixelFormatjj
libajantv2.so.17.0.1.0:_ZN15AJATimeCodeBurn29writeYCbCr10PackedPlanerPixelEPPcii
libajantv2.so.17.0.1.0:_ZN15AJATimeCodeBurn9CopyDigitEiPc
libajantv2.so.17.0.1.0:_ZN15AJATimeCodeBurnC1Ev
libajantv2.so.17.0.1.0:_ZN15AJATimeCodeBurnC2Ev
libajantv2.so.17.0.1.0:_ZN15AJATimeCodeBurnD0Ev
libajantv2.so.17.0.1.0:_ZN15AJATimeCodeBurnD1Ev
libajantv2.so.17.0.1.0:_ZN15AJATimeCodeBurnD2Ev
libajantv2.so.17.0.1.0:_ZN15CNTV2Config202212getLastErrorB5cxx11Ev
libajantv2.so.17.0.1.0:_ZN15CNTV2Config202213GetLinkStatusE4eSFPR9SFPStatus
libajantv2.so.17.0.1.0:_ZN15CNTV2Config202213GetMACAddressE4eSFP10NTV2StreamNSt7__cxx1112basic_stringIcSt11char_traitsIcESaIcEEERjS8_
libajantv2.so.17.0.1.0:_ZN15CNTV2Config202213GetSFPMSADataE4eSFPR10SFPMSAData
libajantv2.so.17.0.1.0:_ZN15CNTV2Config202214Get2022_7_ModeERbRj
libajantv2.so.17.0.1.0:_ZN15CNTV2Config202214GetIGMPDisableE4eSFPRb
libajantv2.so.17.0.1.0:_ZN15CNTV2Config202214GetIGMPVersionER14eIGMPVersion_t
libajantv2.so.17.0.1.0:_ZN15CNTV2Config202214Set2022_7_ModeEbj
libajantv2.so.17.0.1.0:_ZN15CNTV2Config202214SetIGMPDisableE4eSFPb
libajantv2.so.17.0.1.0:_ZN15CNTV2Config202214SetIGMPVersionE14eIGMPVersion_t
libajantv2.so.17.0.1.0:_ZN15CNTV2Config202215SelectRxChannelE11NTV2Channel4eSFPRj
libajantv2.so.17.0.1.0:_ZN15CNTV2Config202215SelectTxChannelE11NTV2Channel4eSFPRj
libajantv2.so.17.0.1.0:_ZN15CNTV2Config202216getLastErrorCodeEv
libajantv2.so.17.0.1.0:_ZN15CNTV2Config202218GetRxChannelEnableE11NTV2ChannelRb
libajantv2.so.17.0.1.0:_ZN15CNTV2Config202218GetTxChannelEnableE11NTV2ChannelRb
libajantv2.so.17.0.1.0:_ZN15CNTV2Config202218SetRxChannelEnableE11NTV2Channelb
libajantv2.so.17.0.1.0:_ZN15CNTV2Config202218SetTxChannelEnableE11NTV2Channelb
libajantv2.so.17.0.1.0:_ZN15CNTV2Config202219ChannelSemaphoreSetEjj
libajantv2.so.17.0.1.0:_ZN15CNTV2Config202219GetJ2KDecoderStatusER16j2kDecoderStatus
libajantv2.so.17.0.1.0:_ZN15CNTV2Config202220GetIPServicesControlERbS0_
libajantv2.so.17.0.1.0:_ZN15CNTV2Config202220SetIPServicesControlEbb
libajantv2.so.17.0.1.0:_ZN15CNTV2Config202220VideoChannelToStreamE11NTV2Channel
libajantv2.so.17.0.1.0:_ZN15CNTV2Config202220VideoStreamToChannelE10NTV2Stream
libajantv2.so.17.0.1.0:_ZN15CNTV2Config202221ChannelSemaphoreClearEjj
libajantv2.so.17.0.1.0:_ZN15CNTV2Config202222Get2022ChannelRxStatusE11NTV2ChannelR20s2022RxChannelStatus
libajantv2.so.17.0.1.0:_ZN15CNTV2Config202223DisableNetworkInterfaceE4eSFP
libajantv2.so.17.0.1.0:_ZN15CNTV2Config202223GetNetworkConfigurationE4eSFPR12IPVNetConfig
libajantv2.so.17.0.1.0:_ZN15CNTV2Config202223GetNetworkConfigurationE4eSFPRNSt7__cxx1112basic_stringIcSt11char_traitsIcESaIcEEES7_S7_
libajantv2.so.17.0.1.0:_ZN15CNTV2Config202223SetNetworkConfigurationE4eSFPNSt7__cxx1112basic_stringIcSt11char_traitsIcESaIcEEES6_S6_
libajantv2.so.17.0.1.0:_ZN15CNTV2Config202223SetNetworkConfigurationE4eSFPRK12IPVNetConfig
libajantv2.so.17.0.1.0:_ZN15CNTV2Config202225GetRxChannelConfigurationE11NTV2ChannelR15rx_2022_channel
libajantv2.so.17.0.1.0:_ZN15CNTV2Config202225GetTxChannelConfigurationE11NTV2ChannelR15tx_2022_channel
libajantv2.so.17.0.1.0:_ZN15CNTV2Config202225SetRxChannelConfigurationE11NTV2ChannelRK15rx_2022_channel
libajantv2.so.17.0.1.0:_ZN15CNTV2Config202225SetTxChannelConfigurationE11NTV2ChannelRK15tx_2022_channel
libajantv2.so.17.0.1.0:_ZN15CNTV2Config202226GetJ2KDecoderConfigurationER16j2kDecoderConfig
libajantv2.so.17.0.1.0:_ZN15CNTV2Config202226GetJ2KEncoderConfigurationE11NTV2ChannelR16j2kEncoderConfig
libajantv2.so.17.0.1.0:_ZN15CNTV2Config202226SetJ2KDecoderConfigurationERK16j2kDecoderConfig
libajantv2.so.17.0.1.0:_ZN15CNTV2Config202226SetJ2KEncoderConfigurationE11NTV2ChannelRK16j2kEncoderConfig
libajantv2.so.17.0.1.0:_ZN15CNTV2Config20229GetTxLinkE11NTV2Channel
libajantv2.so.17.0.1.0:_ZN15CNTV2Config2022C1ER9CNTV2Card
libajantv2.so.17.0.1.0:_ZN15CNTV2Config2022C2ER9CNTV2Card
libajantv2.so.17.0.1.0:_ZN15CNTV2Config2022D1Ev
libajantv2.so.17.0.1.0:_ZN15CNTV2Config2022D2Ev
libajantv2.so.17.0.1.0:_ZN15CNTV2Config211010GetArbiterE4eSFP10NTV2StreamRb
libajantv2.so.17.0.1.0:_ZN15CNTV2Config211010SetArbiterE4eSFP10NTV2Streamb
libajantv2.so.17.0.1.0:_ZN15CNTV2Config211010StreamTypeE10NTV2Stream
libajantv2.so.17.0.1.0:_ZN15CNTV2Config211011GetLLDPInfoERNSt7__cxx1112basic_stringIcSt11char_traitsIcESaIcEEES6_S6_S6_
libajantv2.so.17.0.1.0:_ZN15CNTV2Config211011GetSamplingE4eSFP10NTV2Stream
libajantv2.so.17.0.1.0:_ZN15CNTV2Config211011SetLLDPInfoENSt7__cxx1112basic_stringIcSt11char_traitsIcESaIcEEE
libajantv2.so.17.0.1.0:_ZN15CNTV2Config211011SetSamplingE4eSFP10NTV2Stream12VPIDSampling
libajantv2.so.17.0.1.0:_ZN15CNTV2Config211012ConfigurePTPE4eSFPNSt7__cxx1112basic_stringIcSt11char_traitsIcESaIcEEE
libajantv2.so.17.0.1.0:_ZN15CNTV2Config211012GetActualSDPENSt7__cxx1112basic_stringIcSt11char_traitsIcESaIcEEERS5_
libajantv2.so.17.0.1.0:_ZN15CNTV2Config211012GetPTPDomainERh
libajantv2.so.17.0.1.0:_ZN15CNTV2Config211012GetPTPStatusER9PTPStatus
libajantv2.so.17.0.1.0:_ZN15CNTV2Config211012SetPTPDomainEh
libajantv2.so.17.0.1.0:_ZN15CNTV2Config211012getLastErrorB5cxx11Ev
libajantv2.so.17.0.1.0:_ZN15CNTV2Config211012rateToStringB5cxx11E13NTV2FrameRate
libajantv2.so.17.0.1.0:_ZN15CNTV2Config211012stringToRateENSt7__cxx1112basic_stringIcSt11char_traitsIcESaIcEEE
libajantv2.so.17.0.1.0:_ZN15CNTV2Config211013GetLinkStatusE4eSFPR9SFPStatus
libajantv2.so.17.0.1.0:_ZN15CNTV2Config211013GetMACAddressE4eSFP10NTV2StreamNSt7__cxx1112basic_stringIcSt11char_traitsIcESaIcEEERjS8_
libajantv2.so.17.0.1.0:_ZN15CNTV2Config211013GetSFPMSADataE4eSFPR10SFPMSAData
libajantv2.so.17.0.1.0:_ZN15CNTV2Config211014GetIGMPDisableE4eSFPRb
libajantv2.so.17.0.1.0:_ZN15CNTV2Config211014GetIGMPVersionER14eIGMPVersion_t
libajantv2.so.17.0.1.0:_ZN15CNTV2Config211014GetRxByteCountE10NTV2StreamRj
libajantv2.so.17.0.1.0:_ZN15CNTV2Config211014GetRxByteCountE4eSFPRm
libajantv2.so.17.0.1.0:_ZN15CNTV2Config211014GetTxByteCountE4eSFPRm
libajantv2.so.17.0.1.0:_ZN15CNTV2Config211014SetIGMPDisableE4eSFPb
libajantv2.so.17.0.1.0:_ZN15CNTV2Config211014SetIGMPVersionE14eIGMPVersion_t
libajantv2.so.17.0.1.0:_ZN15CNTV2Config211015GenAncStreamSDPERNSt7__cxx1118basic_stringstreamIcSt11char_traitsIcESaIcEEEbb10NTV2StreamPc
libajantv2.so.17.0.1.0:_ZN15CNTV2Config211015Get4KModeEnableERb
libajantv2.so.17.0.1.0:_ZN15CNTV2Config211015GetFramerStreamE4eSFP10NTV2StreamR13tx_2110Config
libajantv2.so.17.0.1.0:_ZN15CNTV2Config211015GetGeneratedSDPB5cxx11Ebb10NTV2Stream
libajantv2.so.17.0.1.0:_ZN15CNTV2Config211015GetNTPTimestampEv
libajantv2.so.17.0.1.0:_ZN15CNTV2Config211015Set4KModeEnableEb
libajantv2.so.17.0.1.0:_ZN15CNTV2Config211015SetFramerStreamE4eSFP10NTV2StreamRK13tx_2110Config
libajantv2.so.17.0.1.0:_ZN15CNTV2Config211016GetFramerAddressE4eSFP10NTV2Stream
libajantv2.so.17.0.1.0:_ZN15CNTV2Config211016GetRxPacketCountE10NTV2StreamRj
libajantv2.so.17.0.1.0:_ZN15CNTV2Config211016GetTxPacketCountE10NTV2StreamRj
libajantv2.so.17.0.1.0:_ZN15CNTV2Config211016getLastErrorCodeEv
libajantv2.so.17.0.1.0:_ZN15CNTV2Config211017GenAudioStreamSDPERNSt7__cxx1118basic_stringstreamIcSt11char_traitsIcESaIcEEEbb10NTV2StreamPc
libajantv2.so.17.0.1.0:_ZN15CNTV2Config211017GenVideoStreamSDPERNSt7__cxx1118basic_stringstreamIcSt11char_traitsIcESaIcEEEbb10NTV2StreamPc
libajantv2.so.17.0.1.0:_ZN15CNTV2Config211017GetRxStreamEnableE4eSFP10NTV2StreamRb
libajantv2.so.17.0.1.0:_ZN15CNTV2Config211017GetTxStreamEnableE10NTV2StreamRbS1_
libajantv2.so.17.0.1.0:_ZN15CNTV2Config211017SetRxStreamEnableE4eSFP10NTV2Streamb
libajantv2.so.17.0.1.0:_ZN15CNTV2Config211017SetTxStreamEnableE10NTV2Streambb
libajantv2.so.17.0.1.0:_ZN15CNTV2Config211018EnableFramerStreamE4eSFP10NTV2Streamb
libajantv2.so.17.0.1.0:_ZN15CNTV2Config211019GenAncStreamSDPInfoERNSt7__cxx1118basic_stringstreamIcSt11char_traitsIcESaIcEEE4eSFP10NTV2StreamPc
libajantv2.so.17.0.1.0:_ZN15CNTV2Config211019LeastCommonMultipleEii
libajantv2.so.17.0.1.0:_ZN15CNTV2Config211019getDescriptionValueEiNSt7__cxx1112basic_stringIcSt11char_traitsIcESaIcEEERS5_
libajantv2.so.17.0.1.0:_ZN15CNTV2Config211020Get2110TxStreamIndexE10NTV2Stream
libajantv2.so.17.0.1.0:_ZN15CNTV2Config211020GetIPServicesControlERbS0_
libajantv2.so.17.0.1.0:_ZN15CNTV2Config211020GetPacketizerAddressE10NTV2Stream12VPIDSampling
libajantv2.so.17.0.1.0:_ZN15CNTV2Config211020SetIPServicesControlEbb
libajantv2.so.17.0.1.0:_ZN15CNTV2Config211020VideoStreamToChannelE10NTV2Stream
libajantv2.so.17.0.1.0:_ZN15CNTV2Config211021GenAudioStreamSDPInfoERNSt7__cxx1118basic_stringstreamIcSt11char_traitsIcESaIcEEE4eSFP10NTV2StreamPc
libajantv2.so.17.0.1.0:_ZN15CNTV2Config211021GenVideoStreamSDPInfoERNSt7__cxx1118basic_stringstreamIcSt11char_traitsIcESaIcEEE4eSFP10NTV2StreamPc
libajantv2.so.17.0.1.0:_ZN15CNTV2Config211021GetAudioCombineEnableERb
libajantv2.so.17.0.1.0:_ZN15CNTV2Config211021GetVideoFormatForRxTxE10NTV2StreamR16_NTV2VideoFormatRjb
libajantv2.so.17.0.1.0:_ZN15CNTV2Config211021ResetPacketizerStreamE10NTV2Stream
libajantv2.so.17.0.1.0:_ZN15CNTV2Config211021SelectTxFramerChannelE10NTV2Streamj
libajantv2.so.17.0.1.0:_ZN15CNTV2Config211021SetAudioCombineEnableEb
libajantv2.so.17.0.1.0:_ZN15CNTV2Config211021SetVideoFormatForRxTxE10NTV2Stream16_NTV2VideoFormatb
libajantv2.so.17.0.1.0:_ZN15CNTV2Config211022GetDecapsulatorAddressE4eSFP10NTV2Stream
libajantv2.so.17.0.1.0:_ZN15CNTV2Config211022GetDepacketizerAddressE10NTV2Stream
libajantv2.so.17.0.1.0:_ZN15CNTV2Config211023DisableNetworkInterfaceE4eSFP
libajantv2.so.17.0.1.0:_ZN15CNTV2Config211023GetNetworkConfigurationE4eSFPR12IPVNetConfig
libajantv2.so.17.0.1.0:_ZN15CNTV2Config211023GetNetworkConfigurationE4eSFPRNSt7__cxx1112basic_stringIcSt11char_traitsIcESaIcEEES7_S7_
libajantv2.so.17.0.1.0:_ZN15CNTV2Config211023ResetDepacketizerStreamE10NTV2Stream
libajantv2.so.17.0.1.0:_ZN15CNTV2Config211023SetNetworkConfigurationE4eSFPNSt7__cxx1112basic_stringIcSt11char_traitsIcESaIcEEES6_S6_
libajantv2.so.17.0.1.0:_ZN15CNTV2Config211023SetNetworkConfigurationE4eSFPRK12IPVNetConfig
libajantv2.so.17.0.1.0:_ZN15CNTV2Config211023SetupDecapsulatorStreamE4eSFP10NTV2StreamRK13rx_2110Config
libajantv2.so.17.0.1.0:_ZN15CNTV2Config211023SetupDepacketizerStreamE10NTV2StreamRK13rx_2110Config
libajantv2.so.17.0.1.0:_ZN15CNTV2Config211024EnableDecapsulatorStreamE4eSFP10NTV2Stream
libajantv2.so.17.0.1.0:_ZN15CNTV2Config211024EnableDepacketizerStreamE10NTV2Stream
libajantv2.so.17.0.1.0:_ZN15CNTV2Config211024GetRxStreamConfigurationE4eSFP10NTV2StreamR13rx_2110Config
libajantv2.so.17.0.1.0:_ZN15CNTV2Config211024GetTxStreamConfigurationE10NTV2StreamR13tx_2110Config
libajantv2.so.17.0.1.0:_ZN15CNTV2Config211024SetRxStreamConfigurationE4eSFP10NTV2StreamRK13rx_2110Config
libajantv2.so.17.0.1.0:_ZN15CNTV2Config211024SetTxStreamConfigurationE10NTV2StreamRK13tx_2110Config
libajantv2.so.17.0.1.0:_ZN15CNTV2Config211024getVideoDescriptionValueENSt7__cxx1112basic_stringIcSt11char_traitsIcESaIcEEE
libajantv2.so.17.0.1.0:_ZN15CNTV2Config211025DisableDecapsulatorStreamE4eSFP10NTV2Stream
libajantv2.so.17.0.1.0:_ZN15CNTV2Config211025DisableDepacketizerStreamE10NTV2Stream
libajantv2.so.17.0.1.0:_ZN15CNTV2Config211025ExtractRxAncConfigFromSDPENSt7__cxx1112basic_stringIcSt11char_traitsIcESaIcEEER13rx_2110Config
libajantv2.so.17.0.1.0:_ZN15CNTV2Config211026AcquireFramerControlAccessEj
libajantv2.so.17.0.1.0:_ZN15CNTV2Config211026GenVideoStreamMultiSDPInfoERNSt7__cxx1118basic_stringstreamIcSt11char_traitsIcESaIcEEEPc
libajantv2.so.17.0.1.0:_ZN15CNTV2Config211026ReleaseFramerControlAccessEj
libajantv2.so.17.0.1.0:_ZN15CNTV2Config211027ExtractRxAudioConfigFromSDPENSt7__cxx1112basic_stringIcSt11char_traitsIcESaIcEEER13rx_2110Config
libajantv2.so.17.0.1.0:_ZN15CNTV2Config211027ExtractRxVideoConfigFromSDPENSt7__cxx1112basic_stringIcSt11char_traitsIcESaIcEEER13rx_2110Config
libajantv2.so.17.0.1.0:_ZN15CNTV2Config211027ExtractRxVideoConfigFromSDPENSt7__cxx1112basic_stringIcSt11char_traitsIcESaIcEEER18multiRx_2110Config
libajantv2.so.17.0.1.0:_ZN15CNTV2Config211028GetPTPPreferredGrandMasterIdERA8_h
libajantv2.so.17.0.1.0:_ZN15CNTV2Config211028SetPTPPreferredGrandMasterIdEPKh
libajantv2.so.17.0.1.0:_ZN15CNTV2Config21105splitB5cxx11EPKcc
libajantv2.so.17.0.1.0:_ZN15CNTV2Config21106GenSDPEbb10NTV2Streamb
libajantv2.so.17.0.1.0:_ZN15CNTV2Config21109GetSDPUrlB5cxx11E4eSFP10NTV2Stream
libajantv2.so.17.0.1.0:_ZN15CNTV2Config21109To_StringB5cxx11Ei
libajantv2.so.17.0.1.0:_ZN15CNTV2Config2110C1ER9CNTV2Card
libajantv2.so.17.0.1.0:_ZN15CNTV2Config2110C2ER9CNTV2Card
libajantv2.so.17.0.1.0:_ZN15CNTV2Config2110D1Ev
libajantv2.so.17.0.1.0:_ZN15CNTV2Config2110D2Ev
libajantv2.so.17.0.1.0:_ZN15NTV2VirtualDataC1EjPKvmb
libajantv2.so.17.0.1.0:_ZN15NTV2VirtualDataC2EjPKvmb
libajantv2.so.17.0.1.0:_ZN15rx_2022_channel4initEv
libajantv2.so.17.0.1.0:_ZN15rx_2022_channeleqERKS_
libajantv2.so.17.0.1.0:_ZN15rx_2022_channelneERKS_
libajantv2.so.17.0.1.0:_ZN15tx_2022_channel4initEv
libajantv2.so.17.0.1.0:_ZN15tx_2022_channeleqERKS_
libajantv2.so.17.0.1.0:_ZN15tx_2022_channelneERKS_
libajantv2.so.17.0.1.0:_ZN16AJAAncillaryData11SetChecksumEhb
libajantv2.so.17.0.1.0:_ZN16AJAAncillaryData13AddEvenParityEh
libajantv2.so.17.0.1.0:_ZN16AJAAncillaryData13AppendPayloadERKS_
libajantv2.so.17.0.1.0:_ZN16AJAAncillaryData13SetDataCodingE16AJAAncDataCoding
libajantv2.so.17.0.1.0:_ZN16AJAAncillaryData14DIDSIDToStringB5cxx11Ehh
libajantv2.so.17.0.1.0:_ZN16AJAAncillaryData14FreeDataMemoryEv
libajantv2.so.17.0.1.0:_ZN16AJAAncillaryData14SetPayloadDataEPKhj
libajantv2.so.17.0.1.0:_ZN16AJAAncillaryData15AllocDataMemoryEj
libajantv2.so.17.0.1.0:_ZN16AJAAncillaryData15SetDataLocationERK13AJAAncDataLoc
libajantv2.so.17.0.1.0:_ZN16AJAAncillaryData15SetFromSMPTE334EPKtjRK13AJAAncDataLoc
libajantv2.so.17.0.1.0:_ZN16AJAAncillaryData16GetNumDestructedEv
libajantv2.so.17.0.1.0:_ZN16AJAAncillaryData16ParsePayloadDataEv
libajantv2.so.17.0.1.0:_ZN16AJAAncillaryData17AppendPayloadDataEPKhj
libajantv2.so.17.0.1.0:_ZN16AJAAncillaryData17GetInstanceCountsERjS0_
libajantv2.so.17.0.1.0:_ZN16AJAAncillaryData17GetNumConstructedEv
libajantv2.so.17.0.1.0:_ZN16AJAAncillaryData19ResetInstanceCountsEv
libajantv2.so.17.0.1.0:_ZN16AJAAncillaryData20GenerateTransmitDataEPhmRj
libajantv2.so.17.0.1.0:_ZN16AJAAncillaryData20GenerateTransmitDataERSt6vectorIjSaIjEE
libajantv2.so.17.0.1.0:_ZN16AJAAncillaryData20GenerateTransmitDataERSt6vectorItSaItEE
libajantv2.so.17.0.1.0:_ZN16AJAAncillaryData20InitWithReceivedDataEPKhmRK13AJAAncDataLocRj
libajantv2.so.17.0.1.0:_ZN16AJAAncillaryData20InitWithReceivedDataERKSt6vectorIhSaIhEERK13AJAAncDataLoc
libajantv2.so.17.0.1.0:_ZN16AJAAncillaryData20InitWithReceivedDataERKSt6vectorIjSaIjEERtb
libajantv2.so.17.0.1.0:_ZN16AJAAncillaryData20SetLocationVideoLinkE14AJAAncDataLink
libajantv2.so.17.0.1.0:_ZN16AJAAncillaryData21GetNumActiveInstancesEv
libajantv2.so.17.0.1.0:_ZN16AJAAncillaryData21SetLocationDataStreamE16AJAAncDataStream
libajantv2.so.17.0.1.0:_ZN16AJAAncillaryData21SetLocationLineNumberEt
libajantv2.so.17.0.1.0:_ZN16AJAAncillaryData21SetPayloadByteAtIndexEhj
libajantv2.so.17.0.1.0:_ZN16AJAAncillaryData22SetLocationDataChannelE17AJAAncDataChannel
libajantv2.so.17.0.1.0:_ZN16AJAAncillaryData22SetLocationHorizOffsetEt
libajantv2.so.17.0.1.0:_ZN16AJAAncillaryData25GetAncPacketsFromVANCLineERKSt6vectorItSaItEE22AncChannelSearchSelectRS0_IS2_SaIS2_EERS2_
libajantv2.so.17.0.1.0:_ZN16AJAAncillaryData29Unpack8BitYCbCrToU16sVANCLineEPKvRSt6vectorItSaItEEj
libajantv2.so.17.0.1.0:_ZN16AJAAncillaryData4InitEv
libajantv2.so.17.0.1.0:_ZN16AJAAncillaryData5ClearEv
libajantv2.so.17.0.1.0:_ZN16AJAAncillaryData6SetDIDEh
libajantv2.so.17.0.1.0:_ZN16AJAAncillaryData6SetSIDEh
libajantv2.so.17.0.1.0:_ZN16AJAAncillaryDataC1EPKS_
libajantv2.so.17.0.1.0:_ZN16AJAAncillaryDataC1ERKS_
libajantv2.so.17.0.1.0:_ZN16AJAAncillaryDataC1Ev
libajantv2.so.17.0.1.0:_ZN16AJAAncillaryDataC2EPKS_
libajantv2.so.17.0.1.0:_ZN16AJAAncillaryDataC2ERKS_
libajantv2.so.17.0.1.0:_ZN16AJAAncillaryDataC2Ev
libajantv2.so.17.0.1.0:_ZN16AJAAncillaryDataD0Ev
libajantv2.so.17.0.1.0:_ZN16AJAAncillaryDataD1Ev
libajantv2.so.17.0.1.0:_ZN16AJAAncillaryDataD2Ev
libajantv2.so.17.0.1.0:_ZN16AJAAncillaryDataaSERKS_
libajantv2.so.17.0.1.0:_ZN16AJAAncillaryList11AddVANCDataERKSt6vectorItSaItEERK13AJAAncDataLocj
libajantv2.so.17.0.1.0:_ZN16AJAAncillaryList13GetRTPPacketsERSt6vectorIS0_IjSaIjEESaIS2_EES5_RS0_IhSaIhEES8_bj
libajantv2.so.17.0.1.0:_ZN16AJAAncillaryList13SortListByDIDEv
libajantv2.so.17.0.1.0:_ZN16AJAAncillaryList13SortListBySIDEv
libajantv2.so.17.0.1.0:_ZN16AJAAncillaryList15GetTransmitDataER10NTV2BufferS1_bj
libajantv2.so.17.0.1.0:_ZN16AJAAncillaryList15SetFromVANCDataERK10NTV2BufferRK20NTV2FormatDescriptorRS_j
libajantv2.so.17.0.1.0:_ZN16AJAAncillaryList15WriteRTPPacketsER10NTV2BufferRjRKSt6vectorIS3_IjSaIjEESaIS5_EERKS3_IhSaIhEEbb
libajantv2.so.17.0.1.0:_ZN16AJAAncillaryList16AddAncillaryDataEPK16AJAAncillaryData
libajantv2.so.17.0.1.0:_ZN16AJAAncillaryList16AddAncillaryDataERKS_
libajantv2.so.17.0.1.0:_ZN16AJAAncillaryList17BufferHasGUMPDataERK10NTV2Buffer
libajantv2.so.17.0.1.0:_ZN16AJAAncillaryList17GetIPTransmitDataER10NTV2BufferS1_bj
libajantv2.so.17.0.1.0:_ZN16AJAAncillaryList18SortListByLocationEv
libajantv2.so.17.0.1.0:_ZN16AJAAncillaryList19DeleteAncillaryDataEP16AJAAncillaryData
libajantv2.so.17.0.1.0:_ZN16AJAAncillaryList19GetVANCTransmitDataER10NTV2BufferRK20NTV2FormatDescriptor
libajantv2.so.17.0.1.0:_ZN16AJAAncillaryList19RemoveAncillaryDataEP16AJAAncillaryData
libajantv2.so.17.0.1.0:_ZN16AJAAncillaryList21ParseAllAncillaryDataEv
libajantv2.so.17.0.1.0:_ZN16AJAAncillaryList22AddFromDeviceAncBufferERK10NTV2BufferRS_j
libajantv2.so.17.0.1.0:_ZN16AJAAncillaryList23GetIPTransmitDataLengthERjS0_bj
libajantv2.so.17.0.1.0:_ZN16AJAAncillaryList23SetFromDeviceAncBuffersERK10NTV2BufferS2_RS_j
libajantv2.so.17.0.1.0:_ZN16AJAAncillaryList24AddReceivedAncillaryDataEPKhjj
libajantv2.so.17.0.1.0:_ZN16AJAAncillaryList24AddReceivedAncillaryDataERKSt6vectorIjSaIjEE
libajantv2.so.17.0.1.0:_ZN16AJAAncillaryList28GetAncillaryDataTransmitDataEbjPhjS0_j
libajantv2.so.17.0.1.0:_ZN16AJAAncillaryList28GetAncillaryDataTransmitSizeEbjRjS0_
libajantv2.so.17.0.1.0:_ZN16AJAAncillaryList29GetAnalogAncillaryDataTypeMapERSt3mapIt14AJAAncDataTypeSt4lessItESaISt4pairIKtS1_EEE
libajantv2.so.17.0.1.0:_ZN16AJAAncillaryList29SetAnalogAncillaryDataTypeMapERKSt3mapIt14AJAAncDataTypeSt4lessItESaISt4pairIKtS1_EEE
libajantv2.so.17.0.1.0:_ZN16AJAAncillaryList31ClearAnalogAncillaryDataTypeMapEv
libajantv2.so.17.0.1.0:_ZN16AJAAncillaryList33GetAnalogAncillaryDataTypeForLineEt
libajantv2.so.17.0.1.0:_ZN16AJAAncillaryList33SetAnalogAncillaryDataTypeForLineEt14AJAAncDataType
libajantv2.so.17.0.1.0:_ZN16AJAAncillaryList5ClearEv
libajantv2.so.17.0.1.0:_ZN16AJAAncillaryListC1Ev
libajantv2.so.17.0.1.0:_ZN16AJAAncillaryListC2Ev
libajantv2.so.17.0.1.0:_ZN16AJAAncillaryListD0Ev
libajantv2.so.17.0.1.0:_ZN16AJAAncillaryListD1Ev
libajantv2.so.17.0.1.0:_ZN16AJAAncillaryListD2Ev
libajantv2.so.17.0.1.0:_ZN16AJAAncillaryListaSERKS_
libajantv2.so.17.0.1.0:_ZN16CNTV2AxiSpiFlash11SpiTransferESt6vectorIhSaIhEES2_RS2_j
libajantv2.so.17.0.1.0:_ZN16CNTV2AxiSpiFlash12NTV2DeviceOkEv
libajantv2.so.17.0.1.0:_ZN16CNTV2AxiSpiFlash13SpiResetFifosEv
libajantv2.so.17.0.1.0:_ZN16CNTV2AxiSpiFlash14SpiEnableWriteEb
libajantv2.so.17.0.1.0:_ZN16CNTV2AxiSpiFlash15DeviceSupportedE12NTV2DeviceID
libajantv2.so.17.0.1.0:_ZN16CNTV2AxiSpiFlash15FlashDeviceInfoERhS0_S0_S0_S0_
libajantv2.so.17.0.1.0:_ZN16CNTV2AxiSpiFlash15FlashFixAddressEjRSt6vectorIhSaIhEE
libajantv2.so.17.0.1.0:_ZN16CNTV2AxiSpiFlash15FlashReadConfigERh
libajantv2.so.17.0.1.0:_ZN16CNTV2AxiSpiFlash15FlashReadStatusERh
libajantv2.so.17.0.1.0:_ZN16CNTV2AxiSpiFlash15SpiSendFIFODataEv
libajantv2.so.17.0.1.0:_ZN16CNTV2AxiSpiFlash20FlashReadBankAddressERh
libajantv2.so.17.0.1.0:_ZN16CNTV2AxiSpiFlash21FlashWriteBankAddressEh
libajantv2.so.17.0.1.0:_ZN16CNTV2AxiSpiFlash4ReadEjRSt6vectorIhSaIhEEj
libajantv2.so.17.0.1.0:_ZN16CNTV2AxiSpiFlash4SizeE15SpiFlashSection
libajantv2.so.17.0.1.0:_ZN16CNTV2AxiSpiFlash5EraseEjj
libajantv2.so.17.0.1.0:_ZN16CNTV2AxiSpiFlash5WriteEjSt6vectorIhSaIhEEj
libajantv2.so.17.0.1.0:_ZN16CNTV2AxiSpiFlash6OffsetE15SpiFlashSection
libajantv2.so.17.0.1.0:_ZN16CNTV2AxiSpiFlash6VerifyEjRKSt6vectorIhSaIhEE
libajantv2.so.17.0.1.0:_ZN16CNTV2AxiSpiFlash8SpiResetEv
libajantv2.so.17.0.1.0:_ZN16CNTV2AxiSpiFlashC1Eib
libajantv2.so.17.0.1.0:_ZN16CNTV2AxiSpiFlashC2Eib
libajantv2.so.17.0.1.0:_ZN16CNTV2AxiSpiFlashD0Ev
libajantv2.so.17.0.1.0:_ZN16CNTV2AxiSpiFlashD1Ev
libajantv2.so.17.0.1.0:_ZN16CNTV2AxiSpiFlashD2Ev
libajantv2.so.17.0.1.0:_ZN16CNTV2EnhancedCSC10SetKeyGainEd
libajantv2.so.17.0.1.0:_ZN16CNTV2EnhancedCSC12SetKeySourceE24NTV2EnhancedCSCKeySource
libajantv2.so.17.0.1.0:_ZN16CNTV2EnhancedCSC15GetFromHardwareER9CNTV2Card11NTV2Channel
libajantv2.so.17.0.1.0:_ZN16CNTV2EnhancedCSC17SetKeyInputOffsetEs
libajantv2.so.17.0.1.0:_ZN16CNTV2EnhancedCSC17SetKeyOutputRangeE29NTV2EnhancedCSCKeyOutputRange
libajantv2.so.17.0.1.0:_ZN16CNTV2EnhancedCSC18SetKeyOutputOffsetEt
libajantv2.so.17.0.1.0:_ZN16CNTV2EnhancedCSC19SetInputPixelFormatE26NTV2EnhancedCSCPixelFormat
libajantv2.so.17.0.1.0:_ZN16CNTV2EnhancedCSC20SetChromaEdgeControlE32NTV2EnhancedCSCChromaEdgeControl
libajantv2.so.17.0.1.0:_ZN16CNTV2EnhancedCSC20SetOutputPixelFormatE26NTV2EnhancedCSCPixelFormat
libajantv2.so.17.0.1.0:_ZN16CNTV2EnhancedCSC21SetChromaFilterSelectE33NTV2EnhancedCSCChromaFilterSelect
libajantv2.so.17.0.1.0:_ZN16NTV2ACFrameRange13setFromStringERKNSt7__cxx1112basic_stringIcSt11char_traitsIcESaIcEEE
libajantv2.so.17.0.1.0:_ZN16NTV2DebugLoggingC1Eb
libajantv2.so.17.0.1.0:_ZN16NTV2DebugLoggingC2Eb
libajantv2.so.17.0.1.0:_ZN16NTV2GetRegisters10ResetUsingERKSt3setIjSt4lessIjESaIjEE
libajantv2.so.17.0.1.0:_ZN16NTV2GetRegisters13PatchRegisterEjj
libajantv2.so.17.0.1.0:_ZN16NTV2GetRegisters9RPCDecodeERKSt6vectorIhSaIhEERm
libajantv2.so.17.0.1.0:_ZN16NTV2GetRegisters9RPCEncodeERSt6vectorIhSaIhEE
libajantv2.so.17.0.1.0:_ZN16NTV2GetRegistersC1ERKSt3setIjSt4lessIjESaIjEE
libajantv2.so.17.0.1.0:_ZN16NTV2GetRegistersC1ERSt6vectorI11NTV2RegInfoSaIS1_EE
libajantv2.so.17.0.1.0:_ZN16NTV2GetRegistersC2ERKSt3setIjSt4lessIjESaIjEE
libajantv2.so.17.0.1.0:_ZN16NTV2GetRegistersC2ERSt6vectorI11NTV2RegInfoSaIS1_EE
libajantv2.so.17.0.1.0:_ZN16NTV2RPCClientAPI11NTV2ConnectEv
libajantv2.so.17.0.1.0:_ZN16NTV2RPCClientAPI12CreateClientERK14NTV2Dictionary
libajantv2.so.17.0.1.0:_ZN16NTV2RPCClientAPI14NTV2DisconnectEv
libajantv2.so.17.0.1.0:_ZN16NTV2RPCClientAPI14NTV2OpenRemoteEv
libajantv2.so.17.0.1.0:_ZN16NTV2RPCClientAPI15NTV2CloseRemoteEv
libajantv2.so.17.0.1.0:_ZN16NTV2RPCClientAPI16SetConnectParamsERK14NTV2Dictionaryb
libajantv2.so.17.0.1.0:_ZN16NTV2RPCClientAPI17NTV2MessageRemoteEP11NTV2_HEADER
libajantv2.so.17.0.1.0:_ZN16NTV2RPCClientAPI21NTV2DMATransferRemoteE13NTV2DMAEnginebjR10NTV2Bufferjjjjb
libajantv2.so.17.0.1.0:_ZN16NTV2RPCClientAPI22NTV2GetBoolParamRemoteEjRj
libajantv2.so.17.0.1.0:_ZN16NTV2RPCClientAPI22NTV2GetSupportedRemoteEjRSt3setIjSt4lessIjESaIjEE
libajantv2.so.17.0.1.0:_ZN16NTV2RPCClientAPI22NTV2ReadRegisterRemoteEjRjjj
libajantv2.so.17.0.1.0:_ZN16NTV2RPCClientAPI23NTV2AutoCirculateRemoteER18AUTOCIRCULATE_DATA
libajantv2.so.17.0.1.0:_ZN16NTV2RPCClientAPI23NTV2WriteRegisterRemoteEjjjj
libajantv2.so.17.0.1.0:_ZN16NTV2RPCClientAPI25NTV2GetNumericParamRemoteEjRj
libajantv2.so.17.0.1.0:_ZN16NTV2RPCClientAPI26NTV2GetDriverVersionRemoteERj
libajantv2.so.17.0.1.0:_ZN16NTV2RPCClientAPI26NTV2WaitForInterruptRemoteE17_INTERRUPT_ENUMS_j
libajantv2.so.17.0.1.0:_ZN16NTV2RPCClientAPI27NTV2ReadRegisterMultiRemoteEjRjP11NTV2RegInfo
libajantv2.so.17.0.1.0:_ZN16NTV2RPCClientAPI29NTV2DownloadTestPatternRemoteE11NTV2Channel21NTV2FrameBufferFormattbj
libajantv2.so.17.0.1.0:_ZN16NTV2RPCClientAPI35NTV2DriverGetBuildInformationRemoteER17BUILD_INFO_STRUCT
libajantv2.so.17.0.1.0:_ZN16NTV2RPCClientAPI37NTV2DriverGetBitFileInformationRemoteER19BITFILE_INFO_STRUCT15NTV2BitFileType
libajantv2.so.17.0.1.0:_ZN16NTV2RPCClientAPIC1ERK14NTV2Dictionary
libajantv2.so.17.0.1.0:_ZN16NTV2RPCClientAPIC2ERK14NTV2Dictionary
libajantv2.so.17.0.1.0:_ZN16NTV2RPCClientAPID0Ev
libajantv2.so.17.0.1.0:_ZN16NTV2RPCClientAPID1Ev
libajantv2.so.17.0.1.0:_ZN16NTV2RPCClientAPID2Ev
libajantv2.so.17.0.1.0:_ZN16NTV2RPCServerAPI12CreateServerERK14NTV2Dictionary
libajantv2.so.17.0.1.0:_ZN16NTV2RPCServerAPI12CreateServerERKNSt7__cxx1112basic_stringIcSt11char_traitsIcESaIcEEE
libajantv2.so.17.0.1.0:_ZN16NTV2RPCServerAPI15SetConfigParamsERK14NTV2Dictionaryb
libajantv2.so.17.0.1.0:_ZN16NTV2RPCServerAPI9RunServerEv
libajantv2.so.17.0.1.0:_ZN16NTV2RPCServerAPIC1ERK14NTV2Dictionary
libajantv2.so.17.0.1.0:_ZN16NTV2RPCServerAPIC2ERK14NTV2Dictionary
libajantv2.so.17.0.1.0:_ZN16NTV2RPCServerAPID0Ev
libajantv2.so.17.0.1.0:_ZN16NTV2RPCServerAPID1Ev
libajantv2.so.17.0.1.0:_ZN16NTV2RPCServerAPID2Ev
libajantv2.so.17.0.1.0:_ZN16NTV2RoutingEntryaSERK11NTV2RegInfo
libajantv2.so.17.0.1.0:_ZN16NTV2SetRegisters10ResetUsingERKSt6vectorI11NTV2RegInfoSaIS1_EE
libajantv2.so.17.0.1.0:_ZN16NTV2SetRegisters9RPCDecodeERKSt6vectorIhSaIhEERm
libajantv2.so.17.0.1.0:_ZN16NTV2SetRegisters9RPCEncodeERSt6vectorIhSaIhEE
libajantv2.so.17.0.1.0:_ZN16NTV2SetRegistersC1ERKSt6vectorI11NTV2RegInfoSaIS1_EE
libajantv2.so.17.0.1.0:_ZN16NTV2SetRegistersC2ERKSt6vectorI11NTV2RegInfoSaIS1_EE
libajantv2.so.17.0.1.0:_ZN16NTV2StreamBufferC1Ev
libajantv2.so.17.0.1.0:_ZN16NTV2StreamBufferC2Ev
libajantv2.so.17.0.1.0:_ZN16j2kDecoderConfig4initEv
libajantv2.so.17.0.1.0:_ZN16j2kDecoderConfigeqERKS_
libajantv2.so.17.0.1.0:_ZN16j2kDecoderConfigneERKS_
libajantv2.so.17.0.1.0:_ZN16j2kDecoderStatus4initEv
libajantv2.so.17.0.1.0:_ZN16j2kEncoderConfig4initEv
libajantv2.so.17.0.1.0:_ZN16j2kEncoderConfigeqERKS_
libajantv2.so.17.0.1.0:_ZN16j2kEncoderConfigneERKS_
libajantv2.so.17.0.1.0:_ZN17AJARunTimeAverage13MarkDeltaTimeEv
libajantv2.so.17.0.1.0:_ZN17AJARunTimeAverage16MarkDeltaAverageEv
libajantv2.so.17.0.1.0:_ZN17AJARunTimeAverage5ResetEv
libajantv2.so.17.0.1.0:_ZN17AJARunTimeAverage6ResizeEm
libajantv2.so.17.0.1.0:_ZN17AJARunTimeAverage9ResetTimeEv
libajantv2.so.17.0.1.0:_ZN17AJARunTimeAverageC1Ei
libajantv2.so.17.0.1.0:_ZN17AJARunTimeAverageC2Ei
libajantv2.so.17.0.1.0:_ZN17AJASystemInfoImpl6RescanE21AJASystemInfoSections
libajantv2.so.17.0.1.0:_ZN17AJASystemInfoImplC1Ei
libajantv2.so.17.0.1.0:_ZN17AJASystemInfoImplC2Ei
libajantv2.so.17.0.1.0:_ZN17AJASystemInfoImplD0Ev
libajantv2.so.17.0.1.0:_ZN17AJASystemInfoImplD1Ev
libajantv2.so.17.0.1.0:_ZN17AJASystemInfoImplD2Ev
libajantv2.so.17.0.1.0:_ZN17CNTV2ConfigTs202210J2kSetModeE11NTV2Channeljj
libajantv2.so.17.0.1.0:_ZN17CNTV2ConfigTs202211GetFeaturesEv
libajantv2.so.17.0.1.0:_ZN17CNTV2ConfigTs202211J2kSetParamE11NTV2Channeljjj
libajantv2.so.17.0.1.0:_ZN17CNTV2ConfigTs202212GetIpxTsAddrE11NTV2Channel
libajantv2.so.17.0.1.0:_ZN17CNTV2ConfigTs202212J2kSetConfigE11NTV2Channelj
libajantv2.so.17.0.1.0:_ZN17CNTV2ConfigTs202213GetIpxJ2KAddrE11NTV2Channel
libajantv2.so.17.0.1.0:_ZN17CNTV2ConfigTs202214CalculateTsGenE11NTV2Channel
libajantv2.so.17.0.1.0:_ZN17CNTV2ConfigTs202214GetT0CmdStatusE11NTV2ChanneljPj
libajantv2.so.17.0.1.0:_ZN17CNTV2ConfigTs202215J2kCanAcceptCmdE11NTV2Channel
libajantv2.so.17.0.1.0:_ZN17CNTV2ConfigTs202215SetEncoderResetE11NTV2Channelb
libajantv2.so.17.0.1.0:_ZN17CNTV2ConfigTs202215SetupJ2KDecoderERK16j2kDecoderConfig
libajantv2.so.17.0.1.0:_ZN17CNTV2ConfigTs202215SetupJ2KEncoderE11NTV2ChannelRK16j2kEncoderConfig
libajantv2.so.17.0.1.0:_ZN17CNTV2ConfigTs202216ReadJ2KConfigRegE11NTV2ChanneljPj
libajantv2.so.17.0.1.0:_ZN17CNTV2ConfigTs202216SetupTsForEncodeE11NTV2Channel
libajantv2.so.17.0.1.0:_ZN17CNTV2ConfigTs202216getLastErrorCodeEv
libajantv2.so.17.0.1.0:_ZN17CNTV2ConfigTs202217SetupJ2KForEncodeE11NTV2Channel
libajantv2.so.17.0.1.0:_ZN17CNTV2ConfigTs202217WriteJ2KConfigRegE11NTV2Channeljj
libajantv2.so.17.0.1.0:_ZN17CNTV2ConfigTs202218J2KGetNextT0StatusE11NTV2ChannelPj
libajantv2.so.17.0.1.0:_ZN17CNTV2ConfigTs202218J2kGetFrameCounterE11NTV2Channelj
libajantv2.so.17.0.1.0:_ZN17CNTV2ConfigTs202218ReadbackJ2KDecoderER16j2kDecoderConfig
libajantv2.so.17.0.1.0:_ZN17CNTV2ConfigTs202218ReadbackJ2KEncoderE11NTV2ChannelR16j2kEncoderConfig
libajantv2.so.17.0.1.0:_ZN17CNTV2ConfigTs202218SetupEncodeTsTimerE11NTV2Channel
libajantv2.so.17.0.1.0:_ZN17CNTV2ConfigTs202219GetJ2KDecoderStatusER16j2kDecoderStatus
libajantv2.so.17.0.1.0:_ZN17CNTV2ConfigTs202221SetEncoderInputEnableE11NTV2Channelbb
libajantv2.so.17.0.1.0:_ZN17CNTV2ConfigTs202221SetupEncodeTsAesEncapE11NTV2Channel
libajantv2.so.17.0.1.0:_ZN17CNTV2ConfigTs202223SetupEncodeTsJ2KEncoderE11NTV2Channel
libajantv2.so.17.0.1.0:_ZN17CNTV2ConfigTs202225SetupEncodeTsMpegAesEncapE11NTV2Channel
libajantv2.so.17.0.1.0:_ZN17CNTV2ConfigTs202225SetupEncodeTsMpegJ2kEncapE11NTV2Channel
libajantv2.so.17.0.1.0:_ZN17CNTV2ConfigTs202225SetupEncodeTsMpegPcrEncapE11NTV2Channel
libajantv2.so.17.0.1.0:_ZN17CNTV2ConfigTs202228GenerateTableForMpegAesEncapE11NTV2Channel
libajantv2.so.17.0.1.0:_ZN17CNTV2ConfigTs202228GenerateTableForMpegJ2kEncapE11NTV2Channel
libajantv2.so.17.0.1.0:_ZN17CNTV2ConfigTs202228GenerateTableForMpegPcrEncapE11NTV2Channel
libajantv2.so.17.0.1.0:_ZN17CNTV2ConfigTs2022C1ER9CNTV2Card
libajantv2.so.17.0.1.0:_ZN17CNTV2ConfigTs2022C2ER9CNTV2Card
libajantv2.so.17.0.1.0:_ZN17CNTV2MBController10GetRxMatchE11NTV2Channel4eSFPRh
libajantv2.so.17.0.1.0:_ZN17CNTV2MBController10GetSFPInfoE4eSFPR10SFPMSAData
libajantv2.so.17.0.1.0:_ZN17CNTV2MBController10SetRxMatchE11NTV2Channel4eSFPh
libajantv2.so.17.0.1.0:_ZN17CNTV2MBController10getDecimalERKNSt7__cxx1112basic_stringIcSt11char_traitsIcESaIcEEES7_Rj
libajantv2.so.17.0.1.0:_ZN17CNTV2MBController11GetLLDPInfoERNSt7__cxx1112basic_stringIcSt11char_traitsIcESaIcEEES6_S6_S6_
libajantv2.so.17.0.1.0:_ZN17CNTV2MBController11GetTxFormatE11NTV2ChannelR16_NTV2VideoFormat
libajantv2.so.17.0.1.0:_ZN17CNTV2MBController11SetLLDPInfoENSt7__cxx1112basic_stringIcSt11char_traitsIcESaIcEEE
libajantv2.so.17.0.1.0:_ZN17CNTV2MBController11SetTxFormatE11NTV2Channel16_NTV2VideoFormat
libajantv2.so.17.0.1.0:_ZN17CNTV2MBController12GetRemoteMACENSt7__cxx1112basic_stringIcSt11char_traitsIcESaIcEEE4eSFP10NTV2StreamRS5_
libajantv2.so.17.0.1.0:_ZN17CNTV2MBController12GetSFPActiveE4eSFP
libajantv2.so.17.0.1.0:_ZN17CNTV2MBController12SetIGMPGroupE4eSFP10NTV2Streamjjb
libajantv2.so.17.0.1.0:_ZN17CNTV2MBController12SetSFPActiveE4eSFP
libajantv2.so.17.0.1.0:_ZN17CNTV2MBController13splitResponseENSt7__cxx1112basic_stringIcSt11char_traitsIcESaIcEEERSt6vectorIS5_SaIS5_EE
libajantv2.so.17.0.1.0:_ZN17CNTV2MBController14GetRxLinkStateE11NTV2ChannelRbS1_
libajantv2.so.17.0.1.0:_ZN17CNTV2MBController14GetTxLinkStateE11NTV2ChannelRbS1_
libajantv2.so.17.0.1.0:_ZN17CNTV2MBController14SendArpRequestENSt7__cxx1112basic_stringIcSt11char_traitsIcESaIcEEE4eSFP
libajantv2.so.17.0.1.0:_ZN17CNTV2MBController14SetIGMPVersionEj
libajantv2.so.17.0.1.0:_ZN17CNTV2MBController14SetRxLinkStateE11NTV2Channelbb
libajantv2.so.17.0.1.0:_ZN17CNTV2MBController14SetSFPInactiveE4eSFP
libajantv2.so.17.0.1.0:_ZN17CNTV2MBController14SetTxLinkStateE11NTV2Channelbb
libajantv2.so.17.0.1.0:_ZN17CNTV2MBController14UnsetIGMPGroupE4eSFP10NTV2Stream
libajantv2.so.17.0.1.0:_ZN17CNTV2MBController15EnableIGMPGroupE4eSFP10NTV2Streamb
libajantv2.so.17.0.1.0:_ZN17CNTV2MBController15GetDualLinkModeERb
libajantv2.so.17.0.1.0:_ZN17CNTV2MBController15GetNTPTimestampEv
libajantv2.so.17.0.1.0:_ZN17CNTV2MBController15SetDualLinkModeEb
libajantv2.so.17.0.1.0:_ZN17CNTV2MBController15getIGMPCBOffsetE4eSFP10NTV2Stream
libajantv2.so.17.0.1.0:_ZN17CNTV2MBController23DisableNetworkInterfaceE4eSFP
libajantv2.so.17.0.1.0:_ZN17CNTV2MBController24GetRemoteMACFromArpTableENSt7__cxx1112basic_stringIcSt11char_traitsIcESaIcEEE4eSFP10NTV2StreamRS5_
libajantv2.so.17.0.1.0:_ZN17CNTV2MBController25SetMBNetworkConfigurationE4eSFPNSt7__cxx1112basic_stringIcSt11char_traitsIcESaIcEEES6_S6_
libajantv2.so.17.0.1.0:_ZN17CNTV2MBController6GetSDPENSt7__cxx1112basic_stringIcSt11char_traitsIcESaIcEEERS5_
libajantv2.so.17.0.1.0:_ZN17CNTV2MBController6getHexERKNSt7__cxx1112basic_stringIcSt11char_traitsIcESaIcEEES7_Rj
libajantv2.so.17.0.1.0:_ZN17CNTV2MBController7PushSDPENSt7__cxx1112basic_stringIcSt11char_traitsIcESaIcEEERNS0_18basic_stringstreamIcS3_S4_EE
libajantv2.so.17.0.1.0:_ZN17CNTV2MBController9getStringERKNSt7__cxx1112basic_stringIcSt11char_traitsIcESaIcEEES7_RS5_
libajantv2.so.17.0.1.0:_ZN17CNTV2MBControllerC1ER9CNTV2Card
libajantv2.so.17.0.1.0:_ZN17CNTV2MBControllerC2ER9CNTV2Card
libajantv2.so.17.0.1.0:_ZN17CNTV2SignalRouter10InitializeEv
libajantv2.so.17.0.1.0:_ZN17CNTV2SignalRouter12DeinitializeEv
libajantv2.so.17.0.1.0:_ZN17CNTV2SignalRouter12GetWidgetIDsE12NTV2DeviceIDRSt3setI12NTV2WidgetIDSt4lessIS2_ESaIS2_EE
libajantv2.so.17.0.1.0:_ZN17CNTV2SignalRouter12ToCodeStringERNSt7__cxx1112basic_stringIcSt11char_traitsIcESaIcEEERKSt3mapI21NTV2InputCrosspointID22NTV2OutputCrosspointIDSt4lessIS8_ESaISt4pairIKS8_S9_EEERKNS_15PrintCodeConfigE
libajantv2.so.17.0.1.0:_ZN17CNTV2SignalRouter13AddConnectionE21NTV2InputCrosspointID22NTV2OutputCrosspointID
libajantv2.so.17.0.1.0:_ZN17CNTV2SignalRouter13IsInitializedEv
libajantv2.so.17.0.1.0:_ZN17CNTV2SignalRouter13IsKeyInputXptE21NTV2InputCrosspointID
libajantv2.so.17.0.1.0:_ZN17CNTV2SignalRouter14WidgetIDToTypeE12NTV2WidgetID
libajantv2.so.17.0.1.0:_ZN17CNTV2SignalRouter15GetWidgetInputsE12NTV2WidgetIDRSt3setI21NTV2InputCrosspointIDSt4lessIS2_ESaIS2_EE
libajantv2.so.17.0.1.0:_ZN17CNTV2SignalRouter15IsSDIWidgetTypeE14NTV2WidgetType
libajantv2.so.17.0.1.0:_ZN17CNTV2SignalRouter15PrintCodeConfigC1Ev
libajantv2.so.17.0.1.0:_ZN17CNTV2SignalRouter15PrintCodeConfigC2Ev
libajantv2.so.17.0.1.0:_ZN17CNTV2SignalRouter16CreateFromStringERKNSt7__cxx1112basic_stringIcSt11char_traitsIcESaIcEEERS_
libajantv2.so.17.0.1.0:_ZN17CNTV2SignalRouter16CreateFromStringERKNSt7__cxx1112basic_stringIcSt11char_traitsIcESaIcEEERSt3mapI21NTV2InputCrosspointID22NTV2OutputCrosspointIDSt4lessIS9_ESaISt4pairIKS9_SA_EEE
libajantv2.so.17.0.1.0:_ZN17CNTV2SignalRouter16GetWidgetOutputsE12NTV2WidgetIDRSt3setI22NTV2OutputCrosspointIDSt4lessIS2_ESaIS2_EE
libajantv2.so.17.0.1.0:_ZN17CNTV2SignalRouter16IsHDMIWidgetTypeE14NTV2WidgetType
libajantv2.so.17.0.1.0:_ZN17CNTV2SignalRouter16RemoveConnectionE21NTV2InputCrosspointID22NTV2OutputCrosspointID
libajantv2.so.17.0.1.0:_ZN17CNTV2SignalRouter17GetWidgetForInputE21NTV2InputCrosspointIDR12NTV2WidgetID12NTV2DeviceID
libajantv2.so.17.0.1.0:_ZN17CNTV2SignalRouter17Is3GSDIWidgetTypeE14NTV2WidgetType
libajantv2.so.17.0.1.0:_ZN17CNTV2SignalRouter17IsRGBOnlyInputXptE21NTV2InputCrosspointID
libajantv2.so.17.0.1.0:_ZN17CNTV2SignalRouter17IsYUVOnlyInputXptE21NTV2InputCrosspointID
libajantv2.so.17.0.1.0:_ZN17CNTV2SignalRouter17WidgetIDToChannelE12NTV2WidgetID
libajantv2.so.17.0.1.0:_ZN17CNTV2SignalRouter18CompareConnectionsERKSt3mapI21NTV2InputCrosspointID22NTV2OutputCrosspointIDSt4lessIS1_ESaISt4pairIKS1_S2_EEESB_RS9_SC_
libajantv2.so.17.0.1.0:_ZN17CNTV2SignalRouter18GetAllWidgetInputsE12NTV2DeviceIDRSt3setI21NTV2InputCrosspointIDSt4lessIS2_ESaIS2_EE
libajantv2.so.17.0.1.0:_ZN17CNTV2SignalRouter18GetWidgetForOutputE22NTV2OutputCrosspointIDR12NTV2WidgetID12NTV2DeviceID
libajantv2.so.17.0.1.0:_ZN17CNTV2SignalRouter18GetWidgetsForInputE21NTV2InputCrosspointIDRSt3setI12NTV2WidgetIDSt4lessIS2_ESaIS2_EE
libajantv2.so.17.0.1.0:_ZN17CNTV2SignalRouter18Is12GSDIWidgetTypeE14NTV2WidgetType
libajantv2.so.17.0.1.0:_ZN17CNTV2SignalRouter18IsHDMIInWidgetTypeE14NTV2WidgetType
libajantv2.so.17.0.1.0:_ZN17CNTV2SignalRouter18ResetFromRegistersERKSt3setI21NTV2InputCrosspointIDSt4lessIS1_ESaIS1_EERKSt6vectorI11NTV2RegInfoSaIS9_EE
libajantv2.so.17.0.1.0:_ZN17CNTV2SignalRouter19GetWidgetsForOutputE22NTV2OutputCrosspointIDRSt3setI12NTV2WidgetIDSt4lessIS2_ESaIS2_EE
libajantv2.so.17.0.1.0:_ZN17CNTV2SignalRouter19IsHDMIOutWidgetTypeE14NTV2WidgetType
libajantv2.so.17.0.1.0:_ZN17CNTV2SignalRouter20IsDualLinkWidgetTypeE14NTV2WidgetType
libajantv2.so.17.0.1.0:_ZN17CNTV2SignalRouter20IsSDIInputWidgetTypeE14NTV2WidgetType
libajantv2.so.17.0.1.0:_ZN17CNTV2SignalRouter21GetAllRoutingRegInfosERKSt3setI21NTV2InputCrosspointIDSt4lessIS1_ESaIS1_EERSt6vectorI11NTV2RegInfoSaIS9_EE
libajantv2.so.17.0.1.0:_ZN17CNTV2SignalRouter21IsSDIOutputWidgetTypeE14NTV2WidgetType
libajantv2.so.17.0.1.0:_ZN17CNTV2SignalRouter21MakeRouteROMRegistersERSt6vectorI11NTV2RegInfoSaIS1_EE
libajantv2.so.17.0.1.0:_ZN17CNTV2SignalRouter22GetConnectionsFromRegsERKSt3setI21NTV2InputCrosspointIDSt4lessIS1_ESaIS1_EERKSt6vectorI11NTV2RegInfoSaIS9_EERSt3mapIS1_22NTV2OutputCrosspointIDS3_SaISt4pairIKS1_SF_EEE
libajantv2.so.17.0.1.0:_ZN17CNTV2SignalRouter22GetPossibleConnectionsERKSt6vectorI11NTV2RegInfoSaIS1_EERSt8multimapI21NTV2InputCrosspointID22NTV2OutputCrosspointIDSt4lessIS7_ESaISt4pairIKS7_S8_EEE
libajantv2.so.17.0.1.0:_ZN17CNTV2SignalRouter22GetRouteROMInfoFromRegEjjR21NTV2InputCrosspointIDRSt3setI22NTV2OutputCrosspointIDSt4lessIS3_ESaIS3_EEb
libajantv2.so.17.0.1.0:_ZN17CNTV2SignalRouter22IsDualLinkInWidgetTypeE14NTV2WidgetType
libajantv2.so.17.0.1.0:_ZN17CNTV2SignalRouter23IsDualLinkOutWidgetTypeE14NTV2WidgetType
libajantv2.so.17.0.1.0:_ZN17CNTV2SignalRouter26WidgetIDFromTypeAndChannelE14NTV2WidgetType11NTV2Channel
libajantv2.so.17.0.1.0:_ZN17CNTV2SignalRouter29NTV2InputCrosspointIDToStringB5cxx11E21NTV2InputCrosspointID
libajantv2.so.17.0.1.0:_ZN17CNTV2SignalRouter29StringToNTV2InputCrosspointIDERKNSt7__cxx1112basic_stringIcSt11char_traitsIcESaIcEEE
libajantv2.so.17.0.1.0:_ZN17CNTV2SignalRouter30NTV2OutputCrosspointIDToStringB5cxx11E22NTV2OutputCrosspointID
libajantv2.so.17.0.1.0:_ZN17CNTV2SignalRouter30StringToNTV2OutputCrosspointIDERKNSt7__cxx1112basic_stringIcSt11char_traitsIcESaIcEEE
libajantv2.so.17.0.1.0:_ZN17NTV2StreamChannelC1Ev
libajantv2.so.17.0.1.0:_ZN17NTV2StreamChannelC2Ev
libajantv2.so.17.0.1.0:_ZN18AUTOCIRCULATE_DATA9RPCDecodeERKSt6vectorIhSaIhEERm
libajantv2.so.17.0.1.0:_ZN18AUTOCIRCULATE_DATA9RPCEncodeERSt6vectorIhSaIhEE
libajantv2.so.17.0.1.0:_ZN18AUTOCIRCULATE_DATAC1E17_AutoCircCommand_14NTV2Crosspoint
libajantv2.so.17.0.1.0:_ZN18AUTOCIRCULATE_DATAC2E17_AutoCircCommand_14NTV2Crosspoint
libajantv2.so.17.0.1.0:_ZN18CNTV2DeviceScanner10IsHexDigitEc
libajantv2.so.17.0.1.0:_ZN18CNTV2DeviceScanner12ScanHardwareEt
libajantv2.so.17.0.1.0:_ZN18CNTV2DeviceScanner12ScanHardwareEv
libajantv2.so.17.0.1.0:_ZN18CNTV2DeviceScanner13GetDeviceInfoEjR14NTV2DeviceInfob
libajantv2.so.17.0.1.0:_ZN18CNTV2DeviceScanner14IsAlphaNumericERKNSt7__cxx1112basic_stringIcSt11char_traitsIcESaIcEEE
libajantv2.so.17.0.1.0:_ZN18CNTV2DeviceScanner14IsAlphaNumericEc
libajantv2.so.17.0.1.0:_ZN18CNTV2DeviceScanner14IsDecimalDigitEc
libajantv2.so.17.0.1.0:_ZN18CNTV2DeviceScanner15DeviceIDPresentE12NTV2DeviceIDb
libajantv2.so.17.0.1.0:_ZN18CNTV2DeviceScanner16GetDeviceAtIndexEjR9CNTV2Card
libajantv2.so.17.0.1.0:_ZN18CNTV2DeviceScanner16GetDeviceRefNameB5cxx11ER9CNTV2Card
libajantv2.so.17.0.1.0:_ZN18CNTV2DeviceScanner18SetVideoAttributesER14NTV2DeviceInfo
libajantv2.so.17.0.1.0:_ZN18CNTV2DeviceScanner18SortDeviceInfoListEv
libajantv2.so.17.0.1.0:_ZN18CNTV2DeviceScanner19GetDeviceWithSerialEmR9CNTV2Card
libajantv2.so.17.0.1.0:_ZN18CNTV2DeviceScanner19IsLegalSerialNumberERKNSt7__cxx1112basic_stringIcSt11char_traitsIcESaIcEEE
libajantv2.so.17.0.1.0:_ZN18CNTV2DeviceScanner20GetFirstDeviceWithIDE12NTV2DeviceIDR9CNTV2Card
libajantv2.so.17.0.1.0:_ZN18CNTV2DeviceScanner20IsLegalDecimalNumberERKNSt7__cxx1112basic_stringIcSt11char_traitsIcESaIcEEEm
libajantv2.so.17.0.1.0:_ZN18CNTV2DeviceScanner22CompareDeviceInfoListsERKSt6vectorI14NTV2DeviceInfoSaIS1_EES5_RS3_S6_
libajantv2.so.17.0.1.0:_ZN18CNTV2DeviceScanner22GetFirstDeviceWithNameERKNSt7__cxx1112basic_stringIcSt11char_traitsIcESaIcEEER9CNTV2Card
libajantv2.so.17.0.1.0:_ZN18CNTV2DeviceScanner22IsLegalHexSerialNumberERKNSt7__cxx1112basic_stringIcSt11char_traitsIcESaIcEEE
libajantv2.so.17.0.1.0:_ZN18CNTV2DeviceScanner24GetFirstDeviceWithSerialERKNSt7__cxx1112basic_stringIcSt11char_traitsIcESaIcEEER9CNTV2Card
libajantv2.so.17.0.1.0:_ZN18CNTV2DeviceScanner26GetFirstDeviceFromArgumentERKNSt7__cxx1112basic_stringIcSt11char_traitsIcESaIcEEER9CNTV2Card
libajantv2.so.17.0.1.0:_ZN18CNTV2DeviceScanner8DeepCopyERKS_
libajantv2.so.17.0.1.0:_ZN18CNTV2DeviceScannerC1ERKS_
libajantv2.so.17.0.1.0:_ZN18CNTV2DeviceScannerC1Eb
libajantv2.so.17.0.1.0:_ZN18CNTV2DeviceScannerC1Ebt
libajantv2.so.17.0.1.0:_ZN18CNTV2DeviceScannerC2ERKS_
libajantv2.so.17.0.1.0:_ZN18CNTV2DeviceScannerC2Eb
libajantv2.so.17.0.1.0:_ZN18CNTV2DeviceScannerC2Ebt
libajantv2.so.17.0.1.0:_ZN18CNTV2DeviceScanneraSERKS_
libajantv2.so.17.0.1.0:_ZN18CNTV2SerialControl11FastForwardEv
libajantv2.so.17.0.1.0:_ZN18CNTV2SerialControl11ReversePlayEv
libajantv2.so.17.0.1.0:_ZN18CNTV2SerialControl12AdvanceFrameEv
libajantv2.so.17.0.1.0:_ZN18CNTV2SerialControl12ReadRxBufferEPhRtt
libajantv2.so.17.0.1.0:_ZN18CNTV2SerialControl12WriteCommandEPKhb
libajantv2.so.17.0.1.0:_ZN18CNTV2SerialControl13WriteTxBufferEPKht
libajantv2.so.17.0.1.0:_ZN18CNTV2SerialControl14GotoFrameByHMSEhhhh
libajantv2.so.17.0.1.0:_ZN18CNTV2SerialControl17GetTimecodeStringEPc
libajantv2.so.17.0.1.0:_ZN18CNTV2SerialControl18WaitForRxInterruptEv
libajantv2.so.17.0.1.0:_ZN18CNTV2SerialControl18WaitForTxInterruptEv
libajantv2.so.17.0.1.0:_ZN18CNTV2SerialControl4PlayEv
libajantv2.so.17.0.1.0:_ZN18CNTV2SerialControl4StopEv
libajantv2.so.17.0.1.0:_ZN18CNTV2SerialControl6GotACKEv
libajantv2.so.17.0.1.0:_ZN18CNTV2SerialControl6RewindEv
libajantv2.so.17.0.1.0:_ZN18CNTV2SerialControl9BackFrameEv
libajantv2.so.17.0.1.0:_ZN18CNTV2SerialControlC1Ett
libajantv2.so.17.0.1.0:_ZN18CNTV2SerialControlC2Ett
libajantv2.so.17.0.1.0:_ZN18CNTV2SerialControlD0Ev
libajantv2.so.17.0.1.0:_ZN18CNTV2SerialControlD1Ev
libajantv2.so.17.0.1.0:_ZN18CNTV2SerialControlD2Ev
libajantv2.so.17.0.1.0:_ZN18CNTV2SupportLogger11LoadFromLogERKNSt7__cxx1112basic_stringIcSt11char_traitsIcESaIcEEEb
libajantv2.so.17.0.1.0:_ZN18CNTV2SupportLogger15AppendToSectionEjRKNSt7__cxx1112basic_stringIcSt11char_traitsIcESaIcEEE
libajantv2.so.17.0.1.0:_ZN18CNTV2SupportLogger15DumpDeviceSDRAMER9CNTV2CardRKNSt7__cxx1112basic_stringIcSt11char_traitsIcESaIcEEERSo
libajantv2.so.17.0.1.0:_ZN18CNTV2SupportLogger16PrependToSectionEjRKNSt7__cxx1112basic_stringIcSt11char_traitsIcESaIcEEE
libajantv2.so.17.0.1.0:_ZN18CNTV2SupportLogger24InventLogFilePathAndNameER9CNTV2CardNSt7__cxx1112basic_stringIcSt11char_traitsIcESaIcEEES7_
libajantv2.so.17.0.1.0:_ZN18CNTV2SupportLogger7VersionEv
libajantv2.so.17.0.1.0:_ZN18CNTV2SupportLogger9AddFooterERKNSt7__cxx1112basic_stringIcSt11char_traitsIcESaIcEEES7_
libajantv2.so.17.0.1.0:_ZN18CNTV2SupportLogger9AddHeaderERKNSt7__cxx1112basic_stringIcSt11char_traitsIcESaIcEEES7_
libajantv2.so.17.0.1.0:_ZN18CNTV2SupportLoggerC1ER9CNTV2Card25NTV2SupportLoggerSections
libajantv2.so.17.0.1.0:_ZN18CNTV2SupportLoggerC1Et25NTV2SupportLoggerSections
libajantv2.so.17.0.1.0:_ZN18CNTV2SupportLoggerC2ER9CNTV2Card25NTV2SupportLoggerSections
libajantv2.so.17.0.1.0:_ZN18CNTV2SupportLoggerC2Et25NTV2SupportLoggerSections
libajantv2.so.17.0.1.0:_ZN18CNTV2SupportLoggerD0Ev
libajantv2.so.17.0.1.0:_ZN18CNTV2SupportLoggerD1Ev
libajantv2.so.17.0.1.0:_ZN18CNTV2SupportLoggerD2Ev
libajantv2.so.17.0.1.0:_ZN18FRAME_STAMP_STRUCT9RPCDecodeERKSt6vectorIhSaIhEERm
libajantv2.so.17.0.1.0:_ZN18FRAME_STAMP_STRUCT9RPCEncodeERSt6vectorIhSaIhEE
libajantv2.so.17.0.1.0:_ZN18NTV2SDIInputStatus5ClearEv
libajantv2.so.17.0.1.0:_ZN18NTV2SDIInputStatusC1Ev
libajantv2.so.17.0.1.0:_ZN18NTV2SDIInputStatusC2Ev
libajantv2.so.17.0.1.0:_ZN18NTV2TestPatternGen13Draw12BitRampEv
libajantv2.so.17.0.1.0:_ZN18NTV2TestPatternGen13getColorNamesB5cxx11Ev
libajantv2.so.17.0.1.0:_ZN18NTV2TestPatternGen14DrawYCbCrFrameEttt
libajantv2.so.17.0.1.0:_ZN18NTV2TestPatternGen15DrawBorderFrameEv
libajantv2.so.17.0.1.0:_ZN18NTV2TestPatternGen15DrawTestPatternE21NTV2TestPatternSelectRK20NTV2FormatDescriptorR10NTV2Buffer
libajantv2.so.17.0.1.0:_ZN18NTV2TestPatternGen15DrawTestPatternE21NTV2TestPatternSelectRK20NTV2FormatDescriptorRSt6vectorIhSaIhEE
libajantv2.so.17.0.1.0:_ZN18NTV2TestPatternGen15DrawTestPatternE21NTV2TestPatternSelectjj21NTV2FrameBufferFormatRSt6vectorIhSaIhEE
libajantv2.so.17.0.1.0:_ZN18NTV2TestPatternGen15DrawTestPatternERKNSt7__cxx1112basic_stringIcSt11char_traitsIcESaIcEEERK20NTV2FormatDescriptorR10NTV2Buffer
libajantv2.so.17.0.1.0:_ZN18NTV2TestPatternGen16PrepareForOutputEv
libajantv2.so.17.0.1.0:_ZN18NTV2TestPatternGen18Draw12BitZonePlateEv
libajantv2.so.17.0.1.0:_ZN18NTV2TestPatternGen18DrawSlantRampFrameEv
libajantv2.so.17.0.1.0:_ZN18NTV2TestPatternGen18DrawZonePlateFrameEv
libajantv2.so.17.0.1.0:_ZN18NTV2TestPatternGen18canDrawTestPatternE21NTV2TestPatternSelectRK20NTV2FormatDescriptor
libajantv2.so.17.0.1.0:_ZN18NTV2TestPatternGen18findRGBColorByNameERKNSt7__cxx1112basic_stringIcSt11char_traitsIcESaIcEEE
libajantv2.so.17.0.1.0:_ZN18NTV2TestPatternGen19DrawLinearRampFrameEv
libajantv2.so.17.0.1.0:_ZN18NTV2TestPatternGen19getTestPatternNamesB5cxx11Ev
libajantv2.so.17.0.1.0:_ZN18NTV2TestPatternGen21DrawTestPatternWidePQEv
libajantv2.so.17.0.1.0:_ZN18NTV2TestPatternGen21findTestPatternByNameERKNSt7__cxx1112basic_stringIcSt11char_traitsIcESaIcEEE
libajantv2.so.17.0.1.0:_ZN18NTV2TestPatternGen22DrawColorQuadrantFrameEv
libajantv2.so.17.0.1.0:_ZN18NTV2TestPatternGen23DrawQuadrantBorderFrameEv
libajantv2.so.17.0.1.0:_ZN18NTV2TestPatternGen23DrawTestPatternNarrowPQEv
libajantv2.so.17.0.1.0:_ZN18NTV2TestPatternGen24DrawSegmentedTestPatternEv
libajantv2.so.17.0.1.0:_ZN18NTV2TestPatternGen24DrawTestPatternNarrowHLGEv
libajantv2.so.17.0.1.0:_ZN18NTV2TestPatternGen25DrawColorQuadrantFrameTsiEv
libajantv2.so.17.0.1.0:_ZN18NTV2TestPatternGen26DrawColorQuadrantFrameTsi2Ev
libajantv2.so.17.0.1.0:_ZN18NTV2TestPatternGen6drawItEv
libajantv2.so.17.0.1.0:_ZN18NTV2TestPatternGenC1Ev
libajantv2.so.17.0.1.0:_ZN18NTV2TestPatternGenC2Ev
libajantv2.so.17.0.1.0:_ZN19AutoCircVidProcInfo9RPCDecodeERKSt6vectorIhSaIhEERm
libajantv2.so.17.0.1.0:_ZN19AutoCircVidProcInfo9RPCEncodeERSt6vectorIhSaIhEE
libajantv2.so.17.0.1.0:_ZN19AutoCircVidProcInfoC1Ev
libajantv2.so.17.0.1.0:_ZN19AutoCircVidProcInfoC2Ev
libajantv2.so.17.0.1.0:_ZN19CNTV2BitfileManager12AddDirectoryERKNSt7__cxx1112basic_stringIcSt11char_traitsIcESaIcEEE
libajantv2.so.17.0.1.0:_ZN19CNTV2BitfileManager12GetBitStreamER10NTV2Bufferjjjjj
libajantv2.so.17.0.1.0:_ZN19CNTV2BitfileManager13ReadBitstreamEm
libajantv2.so.17.0.1.0:_ZN19CNTV2BitfileManager14GetNumBitfilesEv
libajantv2.so.17.0.1.0:_ZN19CNTV2BitfileManager5ClearEv
libajantv2.so.17.0.1.0:_ZN19CNTV2BitfileManager7AddFileERKNSt7__cxx1112basic_stringIcSt11char_traitsIcESaIcEEE
libajantv2.so.17.0.1.0:_ZN19CNTV2BitfileManagerC1Ev
libajantv2.so.17.0.1.0:_ZN19CNTV2BitfileManagerC2Ev
libajantv2.so.17.0.1.0:_ZN19CNTV2BitfileManagerD0Ev
libajantv2.so.17.0.1.0:_ZN19CNTV2BitfileManagerD1Ev
libajantv2.so.17.0.1.0:_ZN19CNTV2BitfileManagerD2Ev
libajantv2.so.17.0.1.0:_ZN19CNTV2RegisterExpert10DeallocateEv
libajantv2.so.17.0.1.0:_ZN19CNTV2RegisterExpert11IsAllocatedEv
libajantv2.so.17.0.1.0:_ZN19CNTV2RegisterExpert14GetDisplayNameB5cxx11Ej
libajantv2.so.17.0.1.0:_ZN19CNTV2RegisterExpert15GetDisplayValueB5cxx11Ejj12NTV2DeviceID
libajantv2.so.17.0.1.0:_ZN19CNTV2RegisterExpert17IsRegisterInClassEjRKNSt7__cxx1112basic_stringIcSt11char_traitsIcESaIcEEE
libajantv2.so.17.0.1.0:_ZN19CNTV2RegisterExpert18GetRegisterClassesB5cxx11Ejb
libajantv2.so.17.0.1.0:_ZN19CNTV2RegisterExpert20GetInputCrosspointIDEjj
libajantv2.so.17.0.1.0:_ZN19CNTV2RegisterExpert20GetRegistersForClassERKNSt7__cxx1112basic_stringIcSt11char_traitsIcESaIcEEE
libajantv2.so.17.0.1.0:_ZN19CNTV2RegisterExpert20GetRegistersWithNameERKNSt7__cxx1112basic_stringIcSt11char_traitsIcESaIcEEEi
libajantv2.so.17.0.1.0:_ZN19CNTV2RegisterExpert21GetAllRegisterClassesB5cxx11Ev
libajantv2.so.17.0.1.0:_ZN19CNTV2RegisterExpert21GetRegistersForDeviceE12NTV2DeviceIDi
libajantv2.so.17.0.1.0:_ZN19CNTV2RegisterExpert22GetRegistersForChannelE11NTV2Channel
libajantv2.so.17.0.1.0:_ZN19CNTV2RegisterExpert36GetCrosspointSelectGroupRegisterInfoE21NTV2InputCrosspointIDRjS1_
libajantv2.so.17.0.1.0:_ZN19CNTV2RegisterExpert8AllocateEv
libajantv2.so.17.0.1.0:_ZN19NTV2SDIInStatistics17GetSDIInputStatusER18NTV2SDIInputStatust
libajantv2.so.17.0.1.0:_ZN19NTV2SDIInStatistics5ClearEv
libajantv2.so.17.0.1.0:_ZN19NTV2SDIInStatisticsC1Ev
libajantv2.so.17.0.1.0:_ZN19NTV2SDIInStatisticsC2Ev
libajantv2.so.17.0.1.0:_ZN19NTV2SDIInStatisticsixEm
libajantv2.so.17.0.1.0:_ZN19NTV2SmpteLineNumberC1E12NTV2Standard
libajantv2.so.17.0.1.0:_ZN19NTV2SmpteLineNumberC2E12NTV2Standard
libajantv2.so.17.0.1.0:_ZN20AJACommandLineOption12SetExtraDescERKNSt7__cxx1112basic_stringIcSt11char_traitsIcESaIcEEE
libajantv2.so.17.0.1.0:_ZN20AJACommandLineOption15SetDefaultValueERKNSt7__cxx1112basic_stringIcSt11char_traitsIcESaIcEEE
libajantv2.so.17.0.1.0:_ZN20AJACommandLineOption7AddNameERKNSt7__cxx1112basic_stringIcSt11char_traitsIcESaIcEEE
libajantv2.so.17.0.1.0:_ZN20AJACommandLineOption7SetDescERKNSt7__cxx1112basic_stringIcSt11char_traitsIcESaIcEEE
libajantv2.so.17.0.1.0:_ZN20AJACommandLineOption8AddValueERKNSt7__cxx1112basic_stringIcSt11char_traitsIcESaIcEEE
libajantv2.so.17.0.1.0:_ZN20AJACommandLineOptionC1ERKNSt7__cxx1112basic_stringIcSt11char_traitsIcESaIcEEE
libajantv2.so.17.0.1.0:_ZN20AJACommandLineOptionC1ERKNSt7__cxx1112basic_stringIcSt11char_traitsIcESaIcEEES7_
libajantv2.so.17.0.1.0:_ZN20AJACommandLineOptionC1ERKNSt7__cxx1112basic_stringIcSt11char_traitsIcESaIcEEES7_S7_
libajantv2.so.17.0.1.0:_ZN20AJACommandLineOptionC1ERKSt6vectorINSt7__cxx1112basic_stringIcSt11char_traitsIcESaIcEEESaIS6_EE
libajantv2.so.17.0.1.0:_ZN20AJACommandLineOptionC1ERKSt6vectorINSt7__cxx1112basic_stringIcSt11char_traitsIcESaIcEEESaIS6_EERKS6_
libajantv2.so.17.0.1.0:_ZN20AJACommandLineOptionC1ERKSt6vectorINSt7__cxx1112basic_stringIcSt11char_traitsIcESaIcEEESaIS6_EERKS6_SC_
libajantv2.so.17.0.1.0:_ZN20AJACommandLineOptionC1Ev
libajantv2.so.17.0.1.0:_ZN20AJACommandLineOptionC2ERKNSt7__cxx1112basic_stringIcSt11char_traitsIcESaIcEEE
libajantv2.so.17.0.1.0:_ZN20AJACommandLineOptionC2ERKNSt7__cxx1112basic_stringIcSt11char_traitsIcESaIcEEES7_
libajantv2.so.17.0.1.0:_ZN20AJACommandLineOptionC2ERKNSt7__cxx1112basic_stringIcSt11char_traitsIcESaIcEEES7_S7_
libajantv2.so.17.0.1.0:_ZN20AJACommandLineOptionC2ERKSt6vectorINSt7__cxx1112basic_stringIcSt11char_traitsIcESaIcEEESaIS6_EE
libajantv2.so.17.0.1.0:_ZN20AJACommandLineOptionC2ERKSt6vectorINSt7__cxx1112basic_stringIcSt11char_traitsIcESaIcEEESaIS6_EERKS6_
libajantv2.so.17.0.1.0:_ZN20AJACommandLineOptionC2ERKSt6vectorINSt7__cxx1112basic_stringIcSt11char_traitsIcESaIcEEESaIS6_EERKS6_SC_
libajantv2.so.17.0.1.0:_ZN20AJACommandLineOptionC2Ev
libajantv2.so.17.0.1.0:_ZN20AJACommandLineOptionD0Ev
libajantv2.so.17.0.1.0:_ZN20AJACommandLineOptionD1Ev
libajantv2.so.17.0.1.0:_ZN20AJACommandLineOptionD2Ev
libajantv2.so.17.0.1.0:_ZN20AJACommandLineParser10AddOptionsERKSt6vectorI20AJACommandLineOptionSaIS1_EE
libajantv2.so.17.0.1.0:_ZN20AJACommandLineParser11SetHelpTextERKNSt7__cxx1112basic_stringIcSt11char_traitsIcESaIcEEE
libajantv2.so.17.0.1.0:_ZN20AJACommandLineParser12AddSubParserEPS_
libajantv2.so.17.0.1.0:_ZN20AJACommandLineParser12SetUsageTextERKNSt7__cxx1112basic_stringIcSt11char_traitsIcESaIcEEE
libajantv2.so.17.0.1.0:_ZN20AJACommandLineParser12removePrefixERKNSt7__cxx1112basic_stringIcSt11char_traitsIcESaIcEEERi
libajantv2.so.17.0.1.0:_ZN20AJACommandLineParser13AddHelpOptionEv
libajantv2.so.17.0.1.0:_ZN20AJACommandLineParser14GetCommandNameB5cxx11Ev
libajantv2.so.17.0.1.0:_ZN20AJACommandLineParser14setOptionValueERKNSt7__cxx1112basic_stringIcSt11char_traitsIcESaIcEEES7_
libajantv2.so.17.0.1.0:_ZN20AJACommandLineParser15GetKnownOptionsB5cxx11Ev
libajantv2.so.17.0.1.0:_ZN20AJACommandLineParser15hasOptionPrefixERKNSt7__cxx1112basic_stringIcSt11char_traitsIcESaIcEEE
libajantv2.so.17.0.1.0:_ZN20AJACommandLineParser16parseOptionValueERKNSt7__cxx1112basic_stringIcSt11char_traitsIcESaIcEEES7_PN9__gnu_cxx17__normal_iteratorIPS6_St6vectorIS5_SaIS5_EEEESE_
libajantv2.so.17.0.1.0:_ZN20AJACommandLineParser17GetUnknownOptionsB5cxx11Ev
libajantv2.so.17.0.1.0:_ZN20AJACommandLineParser19reverseOptionSearchEPN9__gnu_cxx17__normal_iteratorIPKNSt7__cxx1112basic_stringIcSt11char_traitsIcESaIcEEESt6vectorIS7_SaIS7_EEEERKSC_RS8_iR20AJACommandLineOption
libajantv2.so.17.0.1.0:_ZN20AJACommandLineParser4DumpEv
libajantv2.so.17.0.1.0:_ZN20AJACommandLineParser5ResetEb
libajantv2.so.17.0.1.0:_ZN20AJACommandLineParser9AddOptionERK20AJACommandLineOption
libajantv2.so.17.0.1.0:_ZN20AJACommandLineParser9ParseArgsERKSt6vectorINSt7__cxx1112basic_stringIcSt11char_traitsIcESaIcEEESaIS6_EE
libajantv2.so.17.0.1.0:_ZN20AJACommandLineParser9ParseArgsEiPPc
libajantv2.so.17.0.1.0:_ZN20AJACommandLineParserC1ERKNSt7__cxx1112basic_stringIcSt11char_traitsIcESaIcEEEi
libajantv2.so.17.0.1.0:_ZN20AJACommandLineParserC1ERKS_
libajantv2.so.17.0.1.0:_ZN20AJACommandLineParserC1Ei
libajantv2.so.17.0.1.0:_ZN20AJACommandLineParserC2ERKNSt7__cxx1112basic_stringIcSt11char_traitsIcESaIcEEEi
libajantv2.so.17.0.1.0:_ZN20AJACommandLineParserC2ERKS_
libajantv2.so.17.0.1.0:_ZN20AJACommandLineParserC2Ei
libajantv2.so.17.0.1.0:_ZN20AJACommandLineParserD1Ev
libajantv2.so.17.0.1.0:_ZN20AJACommandLineParserD2Ev
libajantv2.so.17.0.1.0:_ZN20AJACommandLineParseraSERKS_
libajantv2.so.17.0.1.0:_ZN20AUTOCIRCULATE_STATUS5ClearEv
libajantv2.so.17.0.1.0:_ZN20AUTOCIRCULATE_STATUS6CopyToER27AUTOCIRCULATE_STATUS_STRUCT
libajantv2.so.17.0.1.0:_ZN20AUTOCIRCULATE_STATUS8CopyFromERK27AUTOCIRCULATE_STATUS_STRUCT
libajantv2.so.17.0.1.0:_ZN20AUTOCIRCULATE_STATUS9RPCDecodeERKSt6vectorIhSaIhEERm
libajantv2.so.17.0.1.0:_ZN20AUTOCIRCULATE_STATUS9RPCEncodeERSt6vectorIhSaIhEE
libajantv2.so.17.0.1.0:_ZN20AUTOCIRCULATE_STATUSC1E14NTV2Crosspoint
libajantv2.so.17.0.1.0:_ZN20AUTOCIRCULATE_STATUSC2E14NTV2Crosspoint
libajantv2.so.17.0.1.0:_ZN20CNTV2DriverInterface10FinishOpenEv
libajantv2.so.17.0.1.0:_ZN20CNTV2DriverInterface10OpenRemoteERKNSt7__cxx1112basic_stringIcSt11char_traitsIcESaIcEEE
libajantv2.so.17.0.1.0:_ZN20CNTV2DriverInterface11CloseRemoteEv
libajantv2.so.17.0.1.0:_ZN20CNTV2DriverInterface11DmaTransferE13NTV2DMAEngine11NTV2ChannelbjjjjjjRKP24AUTOCIRCULATE_P2P_STRUCT
libajantv2.so.17.0.1.0:_ZN20CNTV2DriverInterface11DmaTransferE13NTV2DMAEnginebjPjjjb
libajantv2.so.17.0.1.0:_ZN20CNTV2DriverInterface11DmaTransferE13NTV2DMAEnginebjPjjjjjjb
libajantv2.so.17.0.1.0:_ZN20CNTV2DriverInterface11GetDeviceIDEv
libajantv2.so.17.0.1.0:_ZN20CNTV2DriverInterface11NTV2MessageEP11NTV2_HEADER
libajantv2.so.17.0.1.0:_ZN20CNTV2DriverInterface12GetBoolParamEjRj
libajantv2.so.17.0.1.0:_ZN20CNTV2DriverInterface12GetShareModeEv
libajantv2.so.17.0.1.0:_ZN20CNTV2DriverInterface12ReadRegisterEjRjjj
libajantv2.so.17.0.1.0:_ZN20CNTV2DriverInterface12SetShareModeEb
libajantv2.so.17.0.1.0:_ZN20CNTV2DriverInterface13AutoCirculateER18AUTOCIRCULATE_DATA
libajantv2.so.17.0.1.0:_ZN20CNTV2DriverInterface13BitstreamLoadEbb
libajantv2.so.17.0.1.0:_ZN20CNTV2DriverInterface13IsDeviceReadyEb
libajantv2.so.17.0.1.0:_ZN20CNTV2DriverInterface13ReadRegistersERSt6vectorI11NTV2RegInfoSaIS1_EE
libajantv2.so.17.0.1.0:_ZN20CNTV2DriverInterface13WriteRegisterEjjjj
libajantv2.so.17.0.1.0:_ZN20CNTV2DriverInterface14BitstreamResetEbb
libajantv2.so.17.0.1.0:_ZN20CNTV2DriverInterface14BitstreamWriteERK10NTV2Bufferbb
libajantv2.so.17.0.1.0:_ZN20CNTV2DriverInterface14BumpEventCountE17_INTERRUPT_ENUMS_
libajantv2.so.17.0.1.0:_ZN20CNTV2DriverInterface15BitstreamStatusERSt6vectorIjSaIjEE
libajantv2.so.17.0.1.0:_ZN20CNTV2DriverInterface15GetNumericParamEjRj
libajantv2.so.17.0.1.0:_ZN20CNTV2DriverInterface15IsMBSystemReadyEv
libajantv2.so.17.0.1.0:_ZN20CNTV2DriverInterface15IsMBSystemValidEv
libajantv2.so.17.0.1.0:_ZN20CNTV2DriverInterface15ReadFlashULWordEjRjj
libajantv2.so.17.0.1.0:_ZN20CNTV2DriverInterface15StreamBufferOpsE11NTV2Channel10NTV2BuffermjR16NTV2StreamBuffer
libajantv2.so.17.0.1.0:_ZN20CNTV2DriverInterface16ParseFlashHeaderER19BITFILE_INFO_STRUCT
libajantv2.so.17.0.1.0:_ZN20CNTV2DriverInterface16StreamChannelOpsE11NTV2ChanneljR17NTV2StreamChannel
libajantv2.so.17.0.1.0:_ZN20CNTV2DriverInterface16WaitForInterruptE17_INTERRUPT_ENUMS_j
libajantv2.so.17.0.1.0:_ZN20CNTV2DriverInterface17GetInterruptCountE17_INTERRUPT_ENUMS_Rj
libajantv2.so.17.0.1.0:_ZN20CNTV2DriverInterface17GetInterruptEventE17_INTERRUPT_ENUMS_
libajantv2.so.17.0.1.0:_ZN20CNTV2DriverInterface17GetOverlappedModeEv
libajantv2.so.17.0.1.0:_ZN20CNTV2DriverInterface17GetSupportedItemsE12_NTV2EnumsID
libajantv2.so.17.0.1.0:_ZN20CNTV2DriverInterface17OpenLocalPhysicalEt
libajantv2.so.17.0.1.0:_ZN20CNTV2DriverInterface17ReadRegisterMultiEjPjP11NTV2RegInfo
libajantv2.so.17.0.1.0:_ZN20CNTV2DriverInterface17SetOverlappedModeEb
libajantv2.so.17.0.1.0:_ZN20CNTV2DriverInterface18CloseLocalPhysicalEv
libajantv2.so.17.0.1.0:_ZN20CNTV2DriverInterface18ConfigureInterruptEb17_INTERRUPT_ENUMS_
libajantv2.so.17.0.1.0:_ZN20CNTV2DriverInterface18ReadRP188RegistersE11NTV2ChannelP12RP188_STRUCT
libajantv2.so.17.0.1.0:_ZN20CNTV2DriverInterface19GetLegalSchemeNamesB5cxx11Ev
libajantv2.so.17.0.1.0:_ZN20CNTV2DriverInterface21ConfigureSubscriptionEb17_INTERRUPT_ENUMS_RPj
libajantv2.so.17.0.1.0:_ZN20CNTV2DriverInterface21GetPackageInformationER19PACKAGE_INFO_STRUCT
libajantv2.so.17.0.1.0:_ZN20CNTV2DriverInterface22GetInterruptEventCountE17_INTERRUPT_ENUMS_Rj
libajantv2.so.17.0.1.0:_ZN20CNTV2DriverInterface22GetRegInfoForBoolParamE16_NTV2BoolParamIDR11NTV2RegInfo
libajantv2.so.17.0.1.0:_ZN20CNTV2DriverInterface22SetInterruptEventCountE17_INTERRUPT_ENUMS_j
libajantv2.so.17.0.1.0:_ZN20CNTV2DriverInterface23GetStreamingApplicationERjRi
libajantv2.so.17.0.1.0:_ZN20CNTV2DriverInterface23SetStreamingApplicationEji
libajantv2.so.17.0.1.0:_ZN20CNTV2DriverInterface24StopRecordRegisterWritesEv
libajantv2.so.17.0.1.0:_ZN20CNTV2DriverInterface25DriverGetBuildInformationER17BUILD_INFO_STRUCT
libajantv2.so.17.0.1.0:_ZN20CNTV2DriverInterface25GetRegInfoForNumericParamE19_NTV2NumericParamIDR11NTV2RegInfo
libajantv2.so.17.0.1.0:_ZN20CNTV2DriverInterface25PauseRecordRegisterWritesEv
libajantv2.so.17.0.1.0:_ZN20CNTV2DriverInterface25StartRecordRegisterWritesEb
libajantv2.so.17.0.1.0:_ZN20CNTV2DriverInterface26ResumeRecordRegisterWritesEv
libajantv2.so.17.0.1.0:_ZN20CNTV2DriverInterface27AcquireStreamForApplicationEji
libajantv2.so.17.0.1.0:_ZN20CNTV2DriverInterface27DriverGetBitFileInformationER19BITFILE_INFO_STRUCT15NTV2BitFileType
libajantv2.so.17.0.1.0:_ZN20CNTV2DriverInterface27ReleaseStreamForApplicationEji
libajantv2.so.17.0.1.0:_ZN20CNTV2DriverInterface40AcquireStreamForApplicationWithReferenceEji
libajantv2.so.17.0.1.0:_ZN20CNTV2DriverInterface40ReleaseStreamForApplicationWithReferenceEji
libajantv2.so.17.0.1.0:_ZN20CNTV2DriverInterface4OpenERKNSt7__cxx1112basic_stringIcSt11char_traitsIcESaIcEEE
libajantv2.so.17.0.1.0:_ZN20CNTV2DriverInterface4OpenEt
libajantv2.so.17.0.1.0:_ZN20CNTV2DriverInterface5CloseEv
libajantv2.so.17.0.1.0:_ZN20CNTV2DriverInterface7SleepMsEi
libajantv2.so.17.0.1.0:_ZN20CNTV2DriverInterfaceC1ERKS_
libajantv2.so.17.0.1.0:_ZN20CNTV2DriverInterfaceC1Ev
libajantv2.so.17.0.1.0:_ZN20CNTV2DriverInterfaceC2ERKS_
libajantv2.so.17.0.1.0:_ZN20CNTV2DriverInterfaceC2Ev
libajantv2.so.17.0.1.0:_ZN20CNTV2DriverInterfaceD0Ev
libajantv2.so.17.0.1.0:_ZN20CNTV2DriverInterfaceD1Ev
libajantv2.so.17.0.1.0:_ZN20CNTV2DriverInterfaceD2Ev
libajantv2.so.17.0.1.0:_ZN20CNTV2DriverInterfaceaSERKS_
libajantv2.so.17.0.1.0:_ZN20NTV2DeviceSpecParser10IsHexDigitEc
libajantv2.so.17.0.1.0:_ZN20NTV2DeviceSpecParser10ParseQueryERmR14NTV2Dictionary
libajantv2.so.17.0.1.0:_ZN20NTV2DeviceSpecParser11ParseSchemeERmRNSt7__cxx1112basic_stringIcSt11char_traitsIcESaIcEEE
libajantv2.so.17.0.1.0:_ZN20NTV2DeviceSpecParser12ParseDNSNameERmRNSt7__cxx1112basic_stringIcSt11char_traitsIcESaIcEEE
libajantv2.so.17.0.1.0:_ZN20NTV2DeviceSpecParser13IsLowerLetterEc
libajantv2.so.17.0.1.0:_ZN20NTV2DeviceSpecParser13IsUpperLetterEc
libajantv2.so.17.0.1.0:_ZN20NTV2DeviceSpecParser13ParseDeviceIDERmRNSt7__cxx1112basic_stringIcSt11char_traitsIcESaIcEEE
libajantv2.so.17.0.1.0:_ZN20NTV2DeviceSpecParser14IsDecimalDigitEc
libajantv2.so.17.0.1.0:_ZN20NTV2DeviceSpecParser14ParseDecNumberERmRNSt7__cxx1112basic_stringIcSt11char_traitsIcESaIcEEE
libajantv2.so.17.0.1.0:_ZN20NTV2DeviceSpecParser14ParseHexNumberERmRNSt7__cxx1112basic_stringIcSt11char_traitsIcESaIcEEE
libajantv2.so.17.0.1.0:_ZN20NTV2DeviceSpecParser14ParseModelNameERmRNSt7__cxx1112basic_stringIcSt11char_traitsIcESaIcEEE
libajantv2.so.17.0.1.0:_ZN20NTV2DeviceSpecParser14ParseSerialNumERmRNSt7__cxx1112basic_stringIcSt11char_traitsIcESaIcEEE
libajantv2.so.17.0.1.0:_ZN20NTV2DeviceSpecParser16ParseIPv4AddressERmRNSt7__cxx1112basic_stringIcSt11char_traitsIcESaIcEEE
libajantv2.so.17.0.1.0:_ZN20NTV2DeviceSpecParser17IsSupportedSchemeERKNSt7__cxx1112basic_stringIcSt11char_traitsIcESaIcEEE
libajantv2.so.17.0.1.0:_ZN20NTV2DeviceSpecParser17ParseAlphaNumericERmRNSt7__cxx1112basic_stringIcSt11char_traitsIcESaIcEEERKS6_
libajantv2.so.17.0.1.0:_ZN20NTV2DeviceSpecParser17ParseResourcePathERmRNSt7__cxx1112basic_stringIcSt11char_traitsIcESaIcEEE
libajantv2.so.17.0.1.0:_ZN20NTV2DeviceSpecParser20IsLegalSerialNumCharEc
libajantv2.so.17.0.1.0:_ZN20NTV2DeviceSpecParser20ParseParamAssignmentERmRNSt7__cxx1112basic_stringIcSt11char_traitsIcESaIcEEES7_
libajantv2.so.17.0.1.0:_ZN20NTV2DeviceSpecParser29ParseHostAddressAndPortNumberERmRNSt7__cxx1112basic_stringIcSt11char_traitsIcESaIcEEES7_
libajantv2.so.17.0.1.0:_ZN20NTV2DeviceSpecParser5ParseEv
libajantv2.so.17.0.1.0:_ZN20NTV2DeviceSpecParser5ResetENSt7__cxx1112basic_stringIcSt11char_traitsIcESaIcEEE
libajantv2.so.17.0.1.0:_ZN20NTV2DeviceSpecParser8IsLetterEcb
libajantv2.so.17.0.1.0:_ZN20NTV2DeviceSpecParserC1ENSt7__cxx1112basic_stringIcSt11char_traitsIcESaIcEEE
libajantv2.so.17.0.1.0:_ZN20NTV2DeviceSpecParserC2ENSt7__cxx1112basic_stringIcSt11char_traitsIcESaIcEEE
libajantv2.so.17.0.1.0:_ZN20NTV2FormatDescriptor11MakeInvalidEv
libajantv2.so.17.0.1.0:_ZN20NTV2FormatDescriptor14FinalizePlanarEv
libajantv2.so.17.0.1.0:_ZN20NTV2FormatDescriptorC1E12NTV2Standard21NTV2FrameBufferFormat12NTV2VANCMode
libajantv2.so.17.0.1.0:_ZN20NTV2FormatDescriptorC1E16_NTV2VideoFormat21NTV2FrameBufferFormat12NTV2VANCMode
libajantv2.so.17.0.1.0:_ZN20NTV2FormatDescriptorC1Ejjjj
libajantv2.so.17.0.1.0:_ZN20NTV2FormatDescriptorC1Ev
libajantv2.so.17.0.1.0:_ZN20NTV2FormatDescriptorC2E12NTV2Standard21NTV2FrameBufferFormat12NTV2VANCMode
libajantv2.so.17.0.1.0:_ZN20NTV2FormatDescriptorC2E16_NTV2VideoFormat21NTV2FrameBufferFormat12NTV2VANCMode
libajantv2.so.17.0.1.0:_ZN20NTV2FormatDescriptorC2Ejjjj
libajantv2.so.17.0.1.0:_ZN20NTV2FormatDescriptorC2Ev
libajantv2.so.17.0.1.0:_ZN20NTV2HDMIOutputStatus15SetFromRegValueEj
libajantv2.so.17.0.1.0:_ZN20NTV2HDMIOutputStatus5ClearEv
libajantv2.so.17.0.1.0:_ZN20NTV2SegmentedDMAInfo3SetEjjjj
libajantv2.so.17.0.1.0:_ZN20NTV2SegmentedDMAInfo5ResetEv
libajantv2.so.17.0.1.0:_ZN20NTV2SegmentedDMAInfo9RPCDecodeERKSt6vectorIhSaIhEERm
libajantv2.so.17.0.1.0:_ZN20NTV2SegmentedDMAInfo9RPCEncodeERSt6vectorIhSaIhEE
libajantv2.so.17.0.1.0:_ZN20NTV2SegmentedDMAInfoC1Ejjjj
libajantv2.so.17.0.1.0:_ZN20NTV2SegmentedDMAInfoC1Ev
libajantv2.so.17.0.1.0:_ZN20NTV2SegmentedDMAInfoC2Ejjjj
libajantv2.so.17.0.1.0:_ZN20NTV2SegmentedDMAInfoC2Ev
libajantv2.so.17.0.1.0:_ZN21AJARTPAncPacketHeader13SetFromULWordEj
libajantv2.so.17.0.1.0:_ZN21AJARTPAncPacketHeader20ReadFromULWordVectorERKSt6vectorIjSaIjEEj
libajantv2.so.17.0.1.0:_ZN21AJARTPAncPacketHeader7SetFromERK13AJAAncDataLoc
libajantv2.so.17.0.1.0:_ZN21AJARTPAncPacketHeaderC1ERK13AJAAncDataLoc
libajantv2.so.17.0.1.0:_ZN21AJARTPAncPacketHeaderC1Ev
libajantv2.so.17.0.1.0:_ZN21AJARTPAncPacketHeaderC2ERK13AJAAncDataLoc
libajantv2.so.17.0.1.0:_ZN21AJARTPAncPacketHeaderC2Ev
libajantv2.so.17.0.1.0:_ZN21CNTV2KonaFlashProgram10EraseBlockE12FlashBlockID
libajantv2.so.17.0.1.0:_ZN21CNTV2KonaFlashProgram10ProgramSOCEb
libajantv2.so.17.0.1.0:_ZN21CNTV2KonaFlashProgram10ReadHeaderE12FlashBlockID
libajantv2.so.17.0.1.0:_ZN21CNTV2KonaFlashProgram10SetBitFileERKNSt7__cxx1112basic_stringIcSt11char_traitsIcESaIcEEERSo12FlashBlockID
libajantv2.so.17.0.1.0:_ZN21CNTV2KonaFlashProgram10SetMBResetEv
libajantv2.so.17.0.1.0:_ZN21CNTV2KonaFlashProgram10SetMCSFileERKNSt7__cxx1112basic_stringIcSt11char_traitsIcESaIcEEE
libajantv2.so.17.0.1.0:_ZN21CNTV2KonaFlashProgram11DisplayDataEjj
libajantv2.so.17.0.1.0:_ZN21CNTV2KonaFlashProgram11EraseSectorEj
libajantv2.so.17.0.1.0:_ZN21CNTV2KonaFlashProgram11FullProgramERSt6vectorIhSaIhEE
libajantv2.so.17.0.1.0:_ZN21CNTV2KonaFlashProgram11VerifyFlashE12FlashBlockIDb
libajantv2.so.17.0.1.0:_ZN21CNTV2KonaFlashProgram12ReadDeviceIDEv
libajantv2.so.17.0.1.0:_ZN21CNTV2KonaFlashProgram12SetQuietModeEv
libajantv2.so.17.0.1.0:_ZN21CNTV2KonaFlashProgram12WriteCommandE14_FLASH_COMMAND
libajantv2.so.17.0.1.0:_ZN21CNTV2KonaFlashProgram13CreateSRecordEb
libajantv2.so.17.0.1.0:_ZN21CNTV2KonaFlashProgram13ProgramCustomERKNSt7__cxx1112basic_stringIcSt11char_traitsIcESaIcEEEjRSo
libajantv2.so.17.0.1.0:_ZN21CNTV2KonaFlashProgram13SRecordOutputEPKc
libajantv2.so.17.0.1.0:_ZN21CNTV2KonaFlashProgram13SetBankSelectE10BankSelect
libajantv2.so.17.0.1.0:_ZN21CNTV2KonaFlashProgram14ProgramFromMCSEb
libajantv2.so.17.0.1.0:_ZN21CNTV2KonaFlashProgram14ProgramKonaxMBERKNSt7__cxx1112basic_stringIcSt11char_traitsIcESaIcEEEjRSo
libajantv2.so.17.0.1.0:_ZN21CNTV2KonaFlashProgram14ReadBankSelectEv
libajantv2.so.17.0.1.0:_ZN21CNTV2KonaFlashProgram14ReadInfoStringEv
libajantv2.so.17.0.1.0:_ZN21CNTV2KonaFlashProgram15CheckAndFixMACsEv
libajantv2.so.17.0.1.0:_ZN21CNTV2KonaFlashProgram15ReadLicenseInfoERNSt7__cxx1112basic_stringIcSt11char_traitsIcESaIcEEE
libajantv2.so.17.0.1.0:_ZN21CNTV2KonaFlashProgram16CreateBankRecordE10BankSelect
libajantv2.so.17.0.1.0:_ZN21CNTV2KonaFlashProgram16ROMHasBankSelectEv
libajantv2.so.17.0.1.0:_ZN21CNTV2KonaFlashProgram16ReadMACAddressesER7MacAddrS1_
libajantv2.so.17.0.1.0:_ZN21CNTV2KonaFlashProgram17ProgramFlashValueEjj
libajantv2.so.17.0.1.0:_ZN21CNTV2KonaFlashProgram18MakeMACsFromSerialEPKcP7MacAddrS3_
libajantv2.so.17.0.1.0:_ZN21CNTV2KonaFlashProgram18ProgramLicenseInfoERKNSt7__cxx1112basic_stringIcSt11char_traitsIcESaIcEEE
libajantv2.so.17.0.1.0:_ZN21CNTV2KonaFlashProgram18VerifySOCPartitionE12FlashBlockIDj
libajantv2.so.17.0.1.0:_ZN21CNTV2KonaFlashProgram19FastProgramFlash256EjPj
libajantv2.so.17.0.1.0:_ZN21CNTV2KonaFlashProgram19ProgramMACAddressesEP7MacAddrS1_
libajantv2.so.17.0.1.0:_ZN21CNTV2KonaFlashProgram19SetDevicePropertiesEv
libajantv2.so.17.0.1.0:_ZN21CNTV2KonaFlashProgram19SetFlashBlockIDBankE12FlashBlockID
libajantv2.so.17.0.1.0:_ZN21CNTV2KonaFlashProgram19WaitForFlashNOTBusyEv
libajantv2.so.17.0.1.0:_ZN21CNTV2KonaFlashProgram20FlashBlockIDToStringB5cxx11E12FlashBlockIDb
libajantv2.so.17.0.1.0:_ZN21CNTV2KonaFlashProgram20IsInstalledFWRunningERbRSo
libajantv2.so.17.0.1.0:_ZN21CNTV2KonaFlashProgram21CreateEDIDIntelRecordEv
libajantv2.so.17.0.1.0:_ZN21CNTV2KonaFlashProgram27CheckFlashErasedWithBlockIDE12FlashBlockID
libajantv2.so.17.0.1.0:_ZN21CNTV2KonaFlashProgram27ParsePartitionFromFileLinesEjRt
libajantv2.so.17.0.1.0:_ZN21CNTV2KonaFlashProgram44DetermineFlashTypeAndBlockNumberFromFileNameERKNSt7__cxx1112basic_stringIcSt11char_traitsIcESaIcEEE
libajantv2.so.17.0.1.0:_ZN21CNTV2KonaFlashProgram7ProgramB5cxx11Eb
libajantv2.so.17.0.1.0:_ZN21CNTV2KonaFlashProgram8SetBoardEtj
libajantv2.so.17.0.1.0:_ZN21CNTV2KonaFlashProgram9EraseChipEt
libajantv2.so.17.0.1.0:_ZN21CNTV2KonaFlashProgram9ReadFlashER10NTV2Buffer12FlashBlockIDR18CNTV2FlashProgress
libajantv2.so.17.0.1.0:_ZN21CNTV2KonaFlashProgramC1Et
libajantv2.so.17.0.1.0:_ZN21CNTV2KonaFlashProgramC1Ev
libajantv2.so.17.0.1.0:_ZN21CNTV2KonaFlashProgramC2Et
libajantv2.so.17.0.1.0:_ZN21CNTV2KonaFlashProgramC2Ev
libajantv2.so.17.0.1.0:_ZN21CNTV2KonaFlashProgramD0Ev
libajantv2.so.17.0.1.0:_ZN21CNTV2KonaFlashProgramD1Ev
libajantv2.so.17.0.1.0:_ZN21CNTV2KonaFlashProgramD2Ev
libajantv2.so.17.0.1.0:_ZN21NTV2BankSelGetSetRegs9RPCDecodeERKSt6vectorIhSaIhEERm
libajantv2.so.17.0.1.0:_ZN21NTV2BankSelGetSetRegs9RPCEncodeERSt6vectorIhSaIhEE
libajantv2.so.17.0.1.0:_ZN21NTV2BankSelGetSetRegsC1ERK11NTV2RegInfoS2_b
libajantv2.so.17.0.1.0:_ZN21NTV2BankSelGetSetRegsC2ERK11NTV2RegInfoS2_b
libajantv2.so.17.0.1.0:_ZN21NTV2SegmentedXferInfo24swapSourceAndDestinationEv
libajantv2.so.17.0.1.0:_ZN21NTV2SegmentedXferInfo5resetEv
libajantv2.so.17.0.1.0:_ZN22AJARTPAncPayloadHeader14ReadFromBufferERK10NTV2Buffer
libajantv2.so.17.0.1.0:_ZN22AJARTPAncPayloadHeader19FieldSignalToStringB5cxx11Eh
libajantv2.so.17.0.1.0:_ZN22AJARTPAncPayloadHeader20ReadFromULWordVectorERKSt6vectorIjSaIjEE
libajantv2.so.17.0.1.0:_ZN22AJARTPAncPayloadHeader25BufferStartsWithRTPHeaderERK10NTV2Buffer
libajantv2.so.17.0.1.0:_ZN22AJARTPAncPayloadHeader32SetFromPacketHeaderULWordAtIndexEjj
libajantv2.so.17.0.1.0:_ZN22AJARTPAncPayloadHeaderC1Ev
libajantv2.so.17.0.1.0:_ZN22AJARTPAncPayloadHeaderC2Ev
libajantv2.so.17.0.1.0:_ZN22AUTOCIRCULATE_TRANSFER10SetBuffersEPjjS0_jS0_jS0_j
libajantv2.so.17.0.1.0:_ZN22AUTOCIRCULATE_TRANSFER13SetAncBuffersEPjjS0_j
libajantv2.so.17.0.1.0:_ZN22AUTOCIRCULATE_TRANSFER14SetAudioBufferEPjj
libajantv2.so.17.0.1.0:_ZN22AUTOCIRCULATE_TRANSFER14SetVideoBufferEPjj
libajantv2.so.17.0.1.0:_ZN22AUTOCIRCULATE_TRANSFER17SetOutputTimeCodeERK10NTV2_RP18811NTV2TCIndex
libajantv2.so.17.0.1.0:_ZN22AUTOCIRCULATE_TRANSFER18SetOutputTimeCodesERKSt3mapI11NTV2TCIndex10NTV2_RP188St4lessIS1_ESaISt4pairIKS1_S2_EEE
libajantv2.so.17.0.1.0:_ZN22AUTOCIRCULATE_TRANSFER19EnableSegmentedDMAsEjjjj
libajantv2.so.17.0.1.0:_ZN22AUTOCIRCULATE_TRANSFER20DisableSegmentedDMAsEv
libajantv2.so.17.0.1.0:_ZN22AUTOCIRCULATE_TRANSFER20SetFrameBufferFormatE21NTV2FrameBufferFormat
libajantv2.so.17.0.1.0:_ZN22AUTOCIRCULATE_TRANSFER21SetAllOutputTimeCodesERK10NTV2_RP188b
libajantv2.so.17.0.1.0:_ZN22AUTOCIRCULATE_TRANSFER5ClearEv
libajantv2.so.17.0.1.0:_ZN22AUTOCIRCULATE_TRANSFER9RPCDecodeERKSt6vectorIhSaIhEERm
libajantv2.so.17.0.1.0:_ZN22AUTOCIRCULATE_TRANSFER9RPCEncodeERSt6vectorIhSaIhEE
libajantv2.so.17.0.1.0:_ZN22AUTOCIRCULATE_TRANSFERC1EPjjS0_jS0_jS0_j
libajantv2.so.17.0.1.0:_ZN22AUTOCIRCULATE_TRANSFERC1Ev
libajantv2.so.17.0.1.0:_ZN22AUTOCIRCULATE_TRANSFERC2EPjjS0_jS0_jS0_j
libajantv2.so.17.0.1.0:_ZN22AUTOCIRCULATE_TRANSFERC2Ev
libajantv2.so.17.0.1.0:_ZN22AUTOCIRCULATE_TRANSFERD1Ev
libajantv2.so.17.0.1.0:_ZN22AUTOCIRCULATE_TRANSFERD2Ev
libajantv2.so.17.0.1.0:_ZN23AJAAncillaryDataFactory22GuessAncillaryDataTypeEPK16AJAAncillaryData
libajantv2.so.17.0.1.0:_ZN23AJAAncillaryDataFactory22GuessAncillaryDataTypeERK16AJAAncillaryData
libajantv2.so.17.0.1.0:_ZN23AJAAncillaryDataFactory6CreateE14AJAAncDataTypePK16AJAAncillaryData
libajantv2.so.17.0.1.0:_ZN23AJAAncillaryDataFactory6CreateE14AJAAncDataTypeRK16AJAAncillaryData
libajantv2.so.17.0.1.0:_ZN23AJAAncillaryData_Cea60812AddOddParityEh
libajantv2.so.17.0.1.0:_ZN23AJAAncillaryData_Cea60814SetCEA608BytesEhh
libajantv2.so.17.0.1.0:_ZN23AJAAncillaryData_Cea60819SetCEA608CharactersEhh
libajantv2.so.17.0.1.0:_ZN23AJAAncillaryData_Cea60826RecognizeThisAncillaryDataEPK16AJAAncillaryData
libajantv2.so.17.0.1.0:_ZN23AJAAncillaryData_Cea6084InitEv
libajantv2.so.17.0.1.0:_ZN23AJAAncillaryData_Cea6085ClearEv
libajantv2.so.17.0.1.0:_ZN23AJAAncillaryData_Cea608C1EPK16AJAAncillaryData
libajantv2.so.17.0.1.0:_ZN23AJAAncillaryData_Cea608C1EPKS_
libajantv2.so.17.0.1.0:_ZN23AJAAncillaryData_Cea608C1ERKS_
libajantv2.so.17.0.1.0:_ZN23AJAAncillaryData_Cea608C1Ev
libajantv2.so.17.0.1.0:_ZN23AJAAncillaryData_Cea608C2EPK16AJAAncillaryData
libajantv2.so.17.0.1.0:_ZN23AJAAncillaryData_Cea608C2EPKS_
libajantv2.so.17.0.1.0:_ZN23AJAAncillaryData_Cea608C2ERKS_
libajantv2.so.17.0.1.0:_ZN23AJAAncillaryData_Cea608C2Ev
libajantv2.so.17.0.1.0:_ZN23AJAAncillaryData_Cea608D0Ev
libajantv2.so.17.0.1.0:_ZN23AJAAncillaryData_Cea608D1Ev
libajantv2.so.17.0.1.0:_ZN23AJAAncillaryData_Cea608D2Ev
libajantv2.so.17.0.1.0:_ZN23AJAAncillaryData_Cea608aSERKS_
libajantv2.so.17.0.1.0:_ZN23AJAAncillaryData_Cea70816ParsePayloadDataEv
libajantv2.so.17.0.1.0:_ZN23AJAAncillaryData_Cea70819GeneratePayloadDataEv
libajantv2.so.17.0.1.0:_ZN23AJAAncillaryData_Cea70826RecognizeThisAncillaryDataEPK16AJAAncillaryData
libajantv2.so.17.0.1.0:_ZN23AJAAncillaryData_Cea7084InitEv
libajantv2.so.17.0.1.0:_ZN23AJAAncillaryData_Cea7085ClearEv
libajantv2.so.17.0.1.0:_ZN23AJAAncillaryData_Cea708C1EPK16AJAAncillaryData
libajantv2.so.17.0.1.0:_ZN23AJAAncillaryData_Cea708C1EPKS_
libajantv2.so.17.0.1.0:_ZN23AJAAncillaryData_Cea708C1ERKS_
libajantv2.so.17.0.1.0:_ZN23AJAAncillaryData_Cea708C1Ev
libajantv2.so.17.0.1.0:_ZN23AJAAncillaryData_Cea708C2EPK16AJAAncillaryData
libajantv2.so.17.0.1.0:_ZN23AJAAncillaryData_Cea708C2EPKS_
libajantv2.so.17.0.1.0:_ZN23AJAAncillaryData_Cea708C2ERKS_
libajantv2.so.17.0.1.0:_ZN23AJAAncillaryData_Cea708C2Ev
libajantv2.so.17.0.1.0:_ZN23AJAAncillaryData_Cea708D0Ev
libajantv2.so.17.0.1.0:_ZN23AJAAncillaryData_Cea708D1Ev
libajantv2.so.17.0.1.0:_ZN23AJAAncillaryData_Cea708D2Ev
libajantv2.so.17.0.1.0:_ZN23AJAAncillaryData_Cea708aSERKS_
libajantv2.so.17.0.1.0:_ZN23NTV2BitfileHeaderParser11ParseHeaderERK10NTV2BufferRSo
libajantv2.so.17.0.1.0:_ZN23NTV2BitfileHeaderParser12SetRawDesignERKNSt7__cxx1112basic_stringIcSt11char_traitsIcESaIcEEERSo
libajantv2.so.17.0.1.0:_ZN23NTV2BitfileHeaderParser19SetProgramSizeBytesEjRSo
libajantv2.so.17.0.1.0:_ZN23NTV2BitfileHeaderParser21SetProgramOffsetBytesEjRSo
libajantv2.so.17.0.1.0:_ZN23NTV2BitfileHeaderParser5ClearEv
libajantv2.so.17.0.1.0:_ZN23NTV2BitfileHeaderParser7SetDateERKNSt7__cxx1112basic_stringIcSt11char_traitsIcESaIcEEERSo
libajantv2.so.17.0.1.0:_ZN23NTV2BitfileHeaderParser7SetTimeERKNSt7__cxx1112basic_stringIcSt11char_traitsIcESaIcEEERSo
libajantv2.so.17.0.1.0:_ZN23NTV2ColorCorrectionData3SetE23NTV2ColorCorrectionModejPKv
libajantv2.so.17.0.1.0:_ZN23NTV2ColorCorrectionData5ClearEv
libajantv2.so.17.0.1.0:_ZN23NTV2ColorCorrectionData9RPCDecodeERKSt6vectorIhSaIhEERm
libajantv2.so.17.0.1.0:_ZN23NTV2ColorCorrectionData9RPCEncodeERSt6vectorIhSaIhEE
libajantv2.so.17.0.1.0:_ZN23NTV2ColorCorrectionDataC1Ev
libajantv2.so.17.0.1.0:_ZN23NTV2ColorCorrectionDataC2Ev
libajantv2.so.17.0.1.0:_ZN23NTV2ColorCorrectionDataD1Ev
libajantv2.so.17.0.1.0:_ZN23NTV2ColorCorrectionDataD2Ev
libajantv2.so.17.0.1.0:_ZN24AJAAncillaryData_HDR_HLG16ParsePayloadDataEv
libajantv2.so.17.0.1.0:_ZN24AJAAncillaryData_HDR_HLG26RecognizeThisAncillaryDataEPK16AJAAncillaryData
libajantv2.so.17.0.1.0:_ZN24AJAAncillaryData_HDR_HLG4InitEv
libajantv2.so.17.0.1.0:_ZN24AJAAncillaryData_HDR_HLG5ClearEv
libajantv2.so.17.0.1.0:_ZN24AJAAncillaryData_HDR_HLGC1EPK16AJAAncillaryData
libajantv2.so.17.0.1.0:_ZN24AJAAncillaryData_HDR_HLGC1EPKS_
libajantv2.so.17.0.1.0:_ZN24AJAAncillaryData_HDR_HLGC1ERKS_
libajantv2.so.17.0.1.0:_ZN24AJAAncillaryData_HDR_HLGC1Ev
libajantv2.so.17.0.1.0:_ZN24AJAAncillaryData_HDR_HLGC2EPK16AJAAncillaryData
libajantv2.so.17.0.1.0:_ZN24AJAAncillaryData_HDR_HLGC2EPKS_
libajantv2.so.17.0.1.0:_ZN24AJAAncillaryData_HDR_HLGC2ERKS_
libajantv2.so.17.0.1.0:_ZN24AJAAncillaryData_HDR_HLGC2Ev
libajantv2.so.17.0.1.0:_ZN24AJAAncillaryData_HDR_HLGD0Ev
libajantv2.so.17.0.1.0:_ZN24AJAAncillaryData_HDR_HLGD1Ev
libajantv2.so.17.0.1.0:_ZN24AJAAncillaryData_HDR_HLGD2Ev
libajantv2.so.17.0.1.0:_ZN24AJAAncillaryData_HDR_HLGaSERKS_
libajantv2.so.17.0.1.0:_ZN24AJAAncillaryData_HDR_SDR16ParsePayloadDataEv
libajantv2.so.17.0.1.0:_ZN24AJAAncillaryData_HDR_SDR26RecognizeThisAncillaryDataEPK16AJAAncillaryData
libajantv2.so.17.0.1.0:_ZN24AJAAncillaryData_HDR_SDR4InitEv
libajantv2.so.17.0.1.0:_ZN24AJAAncillaryData_HDR_SDR5ClearEv
libajantv2.so.17.0.1.0:_ZN24AJAAncillaryData_HDR_SDRC1EPK16AJAAncillaryData
libajantv2.so.17.0.1.0:_ZN24AJAAncillaryData_HDR_SDRC1EPKS_
libajantv2.so.17.0.1.0:_ZN24AJAAncillaryData_HDR_SDRC1ERKS_
libajantv2.so.17.0.1.0:_ZN24AJAAncillaryData_HDR_SDRC1Ev
libajantv2.so.17.0.1.0:_ZN24AJAAncillaryData_HDR_SDRC2EPK16AJAAncillaryData
libajantv2.so.17.0.1.0:_ZN24AJAAncillaryData_HDR_SDRC2EPKS_
libajantv2.so.17.0.1.0:_ZN24AJAAncillaryData_HDR_SDRC2ERKS_
libajantv2.so.17.0.1.0:_ZN24AJAAncillaryData_HDR_SDRC2Ev
libajantv2.so.17.0.1.0:_ZN24AJAAncillaryData_HDR_SDRD0Ev
libajantv2.so.17.0.1.0:_ZN24AJAAncillaryData_HDR_SDRD1Ev
libajantv2.so.17.0.1.0:_ZN24AJAAncillaryData_HDR_SDRD2Ev
libajantv2.so.17.0.1.0:_ZN24AJAAncillaryData_HDR_SDRaSERKS_
libajantv2.so.17.0.1.0:_ZN25AJAAncillaryData_Timecode11SetTimecodeERK11AJATimeCodeRK11AJATimeBaseb
libajantv2.so.17.0.1.0:_ZN25AJAAncillaryData_Timecode13SetTimeDigitsEhhhhhhhh
libajantv2.so.17.0.1.0:_ZN25AJAAncillaryData_Timecode14SetFieldIdFlagEb32AJAAncillaryData_Timecode_Format
libajantv2.so.17.0.1.0:_ZN25AJAAncillaryData_Timecode15SetBinaryGroupsEhhhhhhhh
libajantv2.so.17.0.1.0:_ZN25AJAAncillaryData_Timecode15SetTimeHexValueEhhh
libajantv2.so.17.0.1.0:_ZN25AJAAncillaryData_Timecode16ParsePayloadDataEv
libajantv2.so.17.0.1.0:_ZN25AJAAncillaryData_Timecode16SetDropFrameFlagEb32AJAAncillaryData_Timecode_Format
libajantv2.so.17.0.1.0:_ZN25AJAAncillaryData_Timecode17SetColorFrameFlagEb32AJAAncillaryData_Timecode_Format
libajantv2.so.17.0.1.0:_ZN25AJAAncillaryData_Timecode18SetBinaryGroupFlagEh32AJAAncillaryData_Timecode_Format
libajantv2.so.17.0.1.0:_ZN25AJAAncillaryData_Timecode22SetBinaryGroupHexValueEhhh
libajantv2.so.17.0.1.0:_ZN25AJAAncillaryData_Timecode26RecognizeThisAncillaryDataEPK16AJAAncillaryData
libajantv2.so.17.0.1.0:_ZN25AJAAncillaryData_Timecode29GetTimecodeFormatFromTimeBaseERK11AJATimeBase
libajantv2.so.17.0.1.0:_ZN25AJAAncillaryData_Timecode4InitEv
libajantv2.so.17.0.1.0:_ZN25AJAAncillaryData_Timecode5ClearEv
libajantv2.so.17.0.1.0:_ZN25AJAAncillaryData_Timecode7SetTimeE32AJAAncillaryData_Timecode_Formatjjjj
libajantv2.so.17.0.1.0:_ZN25AJAAncillaryData_TimecodeC1EPK16AJAAncillaryData
libajantv2.so.17.0.1.0:_ZN25AJAAncillaryData_TimecodeC1EPKS_
libajantv2.so.17.0.1.0:_ZN25AJAAncillaryData_TimecodeC1ERKS_
libajantv2.so.17.0.1.0:_ZN25AJAAncillaryData_TimecodeC1Ev
libajantv2.so.17.0.1.0:_ZN25AJAAncillaryData_TimecodeC2EPK16AJAAncillaryData
libajantv2.so.17.0.1.0:_ZN25AJAAncillaryData_TimecodeC2EPKS_
libajantv2.so.17.0.1.0:_ZN25AJAAncillaryData_TimecodeC2ERKS_
libajantv2.so.17.0.1.0:_ZN25AJAAncillaryData_TimecodeC2Ev
libajantv2.so.17.0.1.0:_ZN25AJAAncillaryData_TimecodeaSERKS_
libajantv2.so.17.0.1.0:_ZN25AUTOCIRCULATE_TASK_STRUCT9RPCDecodeERKSt6vectorIhSaIhEERm
libajantv2.so.17.0.1.0:_ZN25AUTOCIRCULATE_TASK_STRUCT9RPCEncodeERSt6vectorIhSaIhEE
libajantv2.so.17.0.1.0:_ZN25CNTV2LinuxDriverInterface10SetupBoardEv
libajantv2.so.17.0.1.0:_ZN25CNTV2LinuxDriverInterface11DmaTransferE13NTV2DMAEngine11NTV2ChannelbjjjjjjRKP24AUTOCIRCULATE_P2P_STRUCT
libajantv2.so.17.0.1.0:_ZN25CNTV2LinuxDriverInterface11DmaTransferE13NTV2DMAEnginebjPjjjb
libajantv2.so.17.0.1.0:_ZN25CNTV2LinuxDriverInterface11DmaTransferE13NTV2DMAEnginebjPjjjjjjb
libajantv2.so.17.0.1.0:_ZN25CNTV2LinuxDriverInterface11NTV2MessageEP11NTV2_HEADER
libajantv2.so.17.0.1.0:_ZN25CNTV2LinuxDriverInterface12MapRegistersEv
libajantv2.so.17.0.1.0:_ZN25CNTV2LinuxDriverInterface12ReadRegisterEjRjjj
libajantv2.so.17.0.1.0:_ZN25CNTV2LinuxDriverInterface13AutoCirculateER18AUTOCIRCULATE_DATA
libajantv2.so.17.0.1.0:_ZN25CNTV2LinuxDriverInterface13MapXena2FlashEv
libajantv2.so.17.0.1.0:_ZN25CNTV2LinuxDriverInterface13WriteRegisterEjjjj
libajantv2.so.17.0.1.0:_ZN25CNTV2LinuxDriverInterface14UnmapRegistersEv
libajantv2.so.17.0.1.0:_ZN25CNTV2LinuxDriverInterface15HevcSendMessageEP17hevcMessageHeader
libajantv2.so.17.0.1.0:_ZN25CNTV2LinuxDriverInterface15MapDNXRegistersEv
libajantv2.so.17.0.1.0:_ZN25CNTV2LinuxDriverInterface15MapFrameBuffersEv
libajantv2.so.17.0.1.0:_ZN25CNTV2LinuxDriverInterface15UnmapXena2FlashEv
libajantv2.so.17.0.1.0:_ZN25CNTV2LinuxDriverInterface16GetBA0MemorySizeEPj
libajantv2.so.17.0.1.0:_ZN25CNTV2LinuxDriverInterface16GetBA1MemorySizeEPj
libajantv2.so.17.0.1.0:_ZN25CNTV2LinuxDriverInterface16GetBA2MemorySizeEPj
libajantv2.so.17.0.1.0:_ZN25CNTV2LinuxDriverInterface16GetBA4MemorySizeEPj
libajantv2.so.17.0.1.0:_ZN25CNTV2LinuxDriverInterface16WaitForInterruptE17_INTERRUPT_ENUMS_j
libajantv2.so.17.0.1.0:_ZN25CNTV2LinuxDriverInterface17GetInterruptCountE17_INTERRUPT_ENUMS_Rj
libajantv2.so.17.0.1.0:_ZN25CNTV2LinuxDriverInterface17OpenLocalPhysicalEt
libajantv2.so.17.0.1.0:_ZN25CNTV2LinuxDriverInterface17UnmapDNXRegistersEv
libajantv2.so.17.0.1.0:_ZN25CNTV2LinuxDriverInterface17UnmapFrameBuffersEv
libajantv2.so.17.0.1.0:_ZN25CNTV2LinuxDriverInterface18CloseLocalPhysicalEv
libajantv2.so.17.0.1.0:_ZN25CNTV2LinuxDriverInterface18ConfigureInterruptEb17_INTERRUPT_ENUMS_
libajantv2.so.17.0.1.0:_ZN25CNTV2LinuxDriverInterface18DmaReadWithOffsetsE13NTV2DMAEnginejPjjjj
libajantv2.so.17.0.1.0:_ZN25CNTV2LinuxDriverInterface18GetAudioOutputModeEP28NTV2_GlobalAudioPlaybackMode
libajantv2.so.17.0.1.0:_ZN25CNTV2LinuxDriverInterface18MapDMADriverBufferEv
libajantv2.so.17.0.1.0:_ZN25CNTV2LinuxDriverInterface18SetAudioOutputModeE28NTV2_GlobalAudioPlaybackMode
libajantv2.so.17.0.1.0:_ZN25CNTV2LinuxDriverInterface19DmaWriteWithOffsetsE13NTV2DMAEnginejPjjjj
libajantv2.so.17.0.1.0:_ZN25CNTV2LinuxDriverInterface20UnmapDMADriverBufferEv
libajantv2.so.17.0.1.0:_ZN25CNTV2LinuxDriverInterface22GetDMANumDriverBuffersEPj
libajantv2.so.17.0.1.0:_ZN25CNTV2LinuxDriverInterface24DmaReadFrameDriverBufferE13NTV2DMAEnginejmjjjj
libajantv2.so.17.0.1.0:_ZN25CNTV2LinuxDriverInterface24DmaReadFrameDriverBufferE13NTV2DMAEnginejmjjjjjj
libajantv2.so.17.0.1.0:_ZN25CNTV2LinuxDriverInterface25DmaWriteFrameDriverBufferE13NTV2DMAEnginejmjj
libajantv2.so.17.0.1.0:_ZN25CNTV2LinuxDriverInterface25DmaWriteFrameDriverBufferE13NTV2DMAEnginejmjjjj
libajantv2.so.17.0.1.0:_ZN25CNTV2LinuxDriverInterface25GetDMADriverBufferAddressEPPj
libajantv2.so.17.0.1.0:_ZN25CNTV2LinuxDriverInterface26ControlDriverDebugMessagesE26NTV2_DriverDebugMessageSetb
libajantv2.so.17.0.1.0:_ZN25CNTV2LinuxDriverInterface31RestoreHardwareProcampRegistersEv
libajantv2.so.17.0.1.0:_ZN25CNTV2LinuxDriverInterface33GetDMADriverBufferPhysicalAddressEPj
libajantv2.so.17.0.1.0:_ZN25CNTV2LinuxDriverInterfaceC1Ev
libajantv2.so.17.0.1.0:_ZN25CNTV2LinuxDriverInterfaceC2Ev
libajantv2.so.17.0.1.0:_ZN25CNTV2LinuxDriverInterfaceD0Ev
libajantv2.so.17.0.1.0:_ZN25CNTV2LinuxDriverInterfaceD1Ev
libajantv2.so.17.0.1.0:_ZN25CNTV2LinuxDriverInterfaceD2Ev
libajantv2.so.17.0.1.0:_ZN26AJAAncillaryData_HDR_HDR1016ParsePayloadDataEv
libajantv2.so.17.0.1.0:_ZN26AJAAncillaryData_HDR_HDR1026RecognizeThisAncillaryDataEPK16AJAAncillaryData
libajantv2.so.17.0.1.0:_ZN26AJAAncillaryData_HDR_HDR104InitEv
libajantv2.so.17.0.1.0:_ZN26AJAAncillaryData_HDR_HDR105ClearEv
libajantv2.so.17.0.1.0:_ZN26AJAAncillaryData_HDR_HDR10C1EPK16AJAAncillaryData
libajantv2.so.17.0.1.0:_ZN26AJAAncillaryData_HDR_HDR10C1EPKS_
libajantv2.so.17.0.1.0:_ZN26AJAAncillaryData_HDR_HDR10C1ERKS_
libajantv2.so.17.0.1.0:_ZN26AJAAncillaryData_HDR_HDR10C1Ev
libajantv2.so.17.0.1.0:_ZN26AJAAncillaryData_HDR_HDR10C2EPK16AJAAncillaryData
libajantv2.so.17.0.1.0:_ZN26AJAAncillaryData_HDR_HDR10C2EPKS_
libajantv2.so.17.0.1.0:_ZN26AJAAncillaryData_HDR_HDR10C2ERKS_
libajantv2.so.17.0.1.0:_ZN26AJAAncillaryData_HDR_HDR10C2Ev
libajantv2.so.17.0.1.0:_ZN26AJAAncillaryData_HDR_HDR10D0Ev
libajantv2.so.17.0.1.0:_ZN26AJAAncillaryData_HDR_HDR10D1Ev
libajantv2.so.17.0.1.0:_ZN26AJAAncillaryData_HDR_HDR10D2Ev
libajantv2.so.17.0.1.0:_ZN26AJAAncillaryData_HDR_HDR10aSERKS_
libajantv2.so.17.0.1.0:_ZN27AUTOCIRCULATE_STATUS_STRUCT9RPCDecodeERKSt6vectorIhSaIhEERm
libajantv2.so.17.0.1.0:_ZN27AUTOCIRCULATE_STATUS_STRUCT9RPCEncodeERSt6vectorIhSaIhEE
libajantv2.so.17.0.1.0:_ZN28AJAAncillaryData_Cea608_Vanc16ParsePayloadDataEv
libajantv2.so.17.0.1.0:_ZN28AJAAncillaryData_Cea608_Vanc19GeneratePayloadDataEv
libajantv2.so.17.0.1.0:_ZN28AJAAncillaryData_Cea608_Vanc26RecognizeThisAncillaryDataEPK16AJAAncillaryData
libajantv2.so.17.0.1.0:_ZN28AJAAncillaryData_Cea608_Vanc4InitEv
libajantv2.so.17.0.1.0:_ZN28AJAAncillaryData_Cea608_Vanc5ClearEv
libajantv2.so.17.0.1.0:_ZN28AJAAncillaryData_Cea608_Vanc7SetLineEbh
libajantv2.so.17.0.1.0:_ZN28AJAAncillaryData_Cea608_VancC1EPK16AJAAncillaryData
libajantv2.so.17.0.1.0:_ZN28AJAAncillaryData_Cea608_VancC1EPKS_
libajantv2.so.17.0.1.0:_ZN28AJAAncillaryData_Cea608_VancC1ERKS_
libajantv2.so.17.0.1.0:_ZN28AJAAncillaryData_Cea608_VancC1Ev
libajantv2.so.17.0.1.0:_ZN28AJAAncillaryData_Cea608_VancC2EPK16AJAAncillaryData
libajantv2.so.17.0.1.0:_ZN28AJAAncillaryData_Cea608_VancC2EPKS_
libajantv2.so.17.0.1.0:_ZN28AJAAncillaryData_Cea608_VancC2ERKS_
libajantv2.so.17.0.1.0:_ZN28AJAAncillaryData_Cea608_VancC2Ev
libajantv2.so.17.0.1.0:_ZN28AJAAncillaryData_Cea608_VancD0Ev
libajantv2.so.17.0.1.0:_ZN28AJAAncillaryData_Cea608_VancD1Ev
libajantv2.so.17.0.1.0:_ZN28AJAAncillaryData_Cea608_VancD2Ev
libajantv2.so.17.0.1.0:_ZN28AJAAncillaryData_Cea608_VancaSERKS_
libajantv2.so.17.0.1.0:_ZN29AJAAncillaryData_Timecode_ATC16ParsePayloadDataEv
libajantv2.so.17.0.1.0:_ZN29AJAAncillaryData_Timecode_ATC18SetDBB1PayloadTypeE45AJAAncillaryData_Timecode_ATC_DBB1PayloadType
libajantv2.so.17.0.1.0:_ZN29AJAAncillaryData_Timecode_ATC19GeneratePayloadDataEv
libajantv2.so.17.0.1.0:_ZN29AJAAncillaryData_Timecode_ATC26RecognizeThisAncillaryDataEPK16AJAAncillaryData
libajantv2.so.17.0.1.0:_ZN29AJAAncillaryData_Timecode_ATC4InitEv
libajantv2.so.17.0.1.0:_ZN29AJAAncillaryData_Timecode_ATC5ClearEv
libajantv2.so.17.0.1.0:_ZN29AJAAncillaryData_Timecode_ATC6SetDBBEhh
libajantv2.so.17.0.1.0:_ZN29AJAAncillaryData_Timecode_ATC7SetDBB1Eh
libajantv2.so.17.0.1.0:_ZN29AJAAncillaryData_Timecode_ATC7SetDBB2Eh
libajantv2.so.17.0.1.0:_ZN29AJAAncillaryData_Timecode_ATCC1EPK16AJAAncillaryData
libajantv2.so.17.0.1.0:_ZN29AJAAncillaryData_Timecode_ATCC1EPKS_
libajantv2.so.17.0.1.0:_ZN29AJAAncillaryData_Timecode_ATCC1ERKS_
libajantv2.so.17.0.1.0:_ZN29AJAAncillaryData_Timecode_ATCC1Ev
libajantv2.so.17.0.1.0:_ZN29AJAAncillaryData_Timecode_ATCC2EPK16AJAAncillaryData
libajantv2.so.17.0.1.0:_ZN29AJAAncillaryData_Timecode_ATCC2EPKS_
libajantv2.so.17.0.1.0:_ZN29AJAAncillaryData_Timecode_ATCC2ERKS_
libajantv2.so.17.0.1.0:_ZN29AJAAncillaryData_Timecode_ATCC2Ev
libajantv2.so.17.0.1.0:_ZN29AJAAncillaryData_Timecode_ATCD0Ev
libajantv2.so.17.0.1.0:_ZN29AJAAncillaryData_Timecode_ATCD1Ev
libajantv2.so.17.0.1.0:_ZN29AJAAncillaryData_Timecode_ATCD2Ev
libajantv2.so.17.0.1.0:_ZN29AJAAncillaryData_Timecode_ATCaSERKS_
libajantv2.so.17.0.1.0:_ZN29AUTOCIRCULATE_TRANSFER_STATUS9RPCDecodeERKSt6vectorIhSaIhEERm
libajantv2.so.17.0.1.0:_ZN29AUTOCIRCULATE_TRANSFER_STATUS9RPCEncodeERSt6vectorIhSaIhEE
libajantv2.so.17.0.1.0:_ZN29AUTOCIRCULATE_TRANSFER_STATUSC1Ev
libajantv2.so.17.0.1.0:_ZN29AUTOCIRCULATE_TRANSFER_STATUSC2Ev
libajantv2.so.17.0.1.0:_ZN29AUTOCIRCULATE_TRANSFER_STRUCT9RPCDecodeERKSt6vectorIhSaIhEERm
libajantv2.so.17.0.1.0:_ZN29AUTOCIRCULATE_TRANSFER_STRUCT9RPCEncodeERSt6vectorIhSaIhEE
libajantv2.so.17.0.1.0:_ZN30AJAAncillaryData_Cea608_Line2110EncodeLineEhhj
libajantv2.so.17.0.1.0:_ZN30AJAAncillaryData_Cea608_Line2115EncodeCharacterEPhh
libajantv2.so.17.0.1.0:_ZN30AJAAncillaryData_Cea608_Line2116CheckDecodeClockEPKhRb
libajantv2.so.17.0.1.0:_ZN30AJAAncillaryData_Cea608_Line2116DecodeCharactersEPKhRhS2_
libajantv2.so.17.0.1.0:_ZN30AJAAncillaryData_Cea608_Line2116EncodeTransitionEPhhh
libajantv2.so.17.0.1.0:_ZN30AJAAncillaryData_Cea608_Line2116InitEncodeBufferEjRj
libajantv2.so.17.0.1.0:_ZN30AJAAncillaryData_Cea608_Line2116ParsePayloadDataEv
libajantv2.so.17.0.1.0:_ZN30AJAAncillaryData_Cea608_Line2117AllocEncodeBufferEv
libajantv2.so.17.0.1.0:_ZN30AJAAncillaryData_Cea608_Line2119GeneratePayloadDataEv
libajantv2.so.17.0.1.0:_ZN30AJAAncillaryData_Cea608_Line2126RecognizeThisAncillaryDataEPK16AJAAncillaryData
libajantv2.so.17.0.1.0:_ZN30AJAAncillaryData_Cea608_Line214InitEv
libajantv2.so.17.0.1.0:_ZN30AJAAncillaryData_Cea608_Line215ClearEv
libajantv2.so.17.0.1.0:_ZN30AJAAncillaryData_Cea608_Line21C1EPK16AJAAncillaryData
libajantv2.so.17.0.1.0:_ZN30AJAAncillaryData_Cea608_Line21C1EPKS_
libajantv2.so.17.0.1.0:_ZN30AJAAncillaryData_Cea608_Line21C1ERKS_
libajantv2.so.17.0.1.0:_ZN30AJAAncillaryData_Cea608_Line21C1Ev
libajantv2.so.17.0.1.0:_ZN30AJAAncillaryData_Cea608_Line21C2EPK16AJAAncillaryData
libajantv2.so.17.0.1.0:_ZN30AJAAncillaryData_Cea608_Line21C2EPKS_
libajantv2.so.17.0.1.0:_ZN30AJAAncillaryData_Cea608_Line21C2ERKS_
libajantv2.so.17.0.1.0:_ZN30AJAAncillaryData_Cea608_Line21C2Ev
libajantv2.so.17.0.1.0:_ZN30AJAAncillaryData_Cea608_Line21D0Ev
libajantv2.so.17.0.1.0:_ZN30AJAAncillaryData_Cea608_Line21D1Ev
libajantv2.so.17.0.1.0:_ZN30AJAAncillaryData_Cea608_Line21D2Ev
libajantv2.so.17.0.1.0:_ZN30AJAAncillaryData_Cea608_Line21aSERKS_
libajantv2.so.17.0.1.0:_ZN30AJAAncillaryData_Timecode_VITC10DecodeLineEPKh
libajantv2.so.17.0.1.0:_ZN30AJAAncillaryData_Timecode_VITC15SetVITCDataTypeE35AJAAncillaryData_Timecode_VITC_Type
libajantv2.so.17.0.1.0:_ZN30AJAAncillaryData_Timecode_VITC16ParsePayloadDataEv
libajantv2.so.17.0.1.0:_ZN30AJAAncillaryData_Timecode_VITC16VITCTypeToStringB5cxx11E35AJAAncillaryData_Timecode_VITC_Type
libajantv2.so.17.0.1.0:_ZN30AJAAncillaryData_Timecode_VITC19GeneratePayloadDataEv
libajantv2.so.17.0.1.0:_ZN30AJAAncillaryData_Timecode_VITC26RecognizeThisAncillaryDataEPK16AJAAncillaryData
libajantv2.so.17.0.1.0:_ZN30AJAAncillaryData_Timecode_VITC4InitEv
libajantv2.so.17.0.1.0:_ZN30AJAAncillaryData_Timecode_VITC5ClearEv
libajantv2.so.17.0.1.0:_ZN30AJAAncillaryData_Timecode_VITCC1EPK16AJAAncillaryData
libajantv2.so.17.0.1.0:_ZN30AJAAncillaryData_Timecode_VITCC1EPKS_
libajantv2.so.17.0.1.0:_ZN30AJAAncillaryData_Timecode_VITCC1ERKS_
libajantv2.so.17.0.1.0:_ZN30AJAAncillaryData_Timecode_VITCC1Ev
libajantv2.so.17.0.1.0:_ZN30AJAAncillaryData_Timecode_VITCC2EPK16AJAAncillaryData
libajantv2.so.17.0.1.0:_ZN30AJAAncillaryData_Timecode_VITCC2EPKS_
libajantv2.so.17.0.1.0:_ZN30AJAAncillaryData_Timecode_VITCC2ERKS_
libajantv2.so.17.0.1.0:_ZN30AJAAncillaryData_Timecode_VITCC2Ev
libajantv2.so.17.0.1.0:_ZN30AJAAncillaryData_Timecode_VITCaSERKS_
libajantv2.so.17.0.1.0:_ZN36AJAAncillaryData_FrameStatusInfo524D16ParsePayloadDataEv
libajantv2.so.17.0.1.0:_ZN36AJAAncillaryData_FrameStatusInfo524D26RecognizeThisAncillaryDataEPK16AJAAncillaryData
libajantv2.so.17.0.1.0:_ZN36AJAAncillaryData_FrameStatusInfo524D4InitEv
libajantv2.so.17.0.1.0:_ZN36AJAAncillaryData_FrameStatusInfo524D5ClearEv
libajantv2.so.17.0.1.0:_ZN36AJAAncillaryData_FrameStatusInfo524DC1EPK16AJAAncillaryData
libajantv2.so.17.0.1.0:_ZN36AJAAncillaryData_FrameStatusInfo524DC1EPKS_
libajantv2.so.17.0.1.0:_ZN36AJAAncillaryData_FrameStatusInfo524DC1ERKS_
libajantv2.so.17.0.1.0:_ZN36AJAAncillaryData_FrameStatusInfo524DC1Ev
libajantv2.so.17.0.1.0:_ZN36AJAAncillaryData_FrameStatusInfo524DC2EPK16AJAAncillaryData
libajantv2.so.17.0.1.0:_ZN36AJAAncillaryData_FrameStatusInfo524DC2EPKS_
libajantv2.so.17.0.1.0:_ZN36AJAAncillaryData_FrameStatusInfo524DC2ERKS_
libajantv2.so.17.0.1.0:_ZN36AJAAncillaryData_FrameStatusInfo524DC2Ev
libajantv2.so.17.0.1.0:_ZN36AJAAncillaryData_FrameStatusInfo524DD0Ev
libajantv2.so.17.0.1.0:_ZN36AJAAncillaryData_FrameStatusInfo524DD1Ev
libajantv2.so.17.0.1.0:_ZN36AJAAncillaryData_FrameStatusInfo524DD2Ev
libajantv2.so.17.0.1.0:_ZN36AJAAncillaryData_FrameStatusInfo524DaSERKS_
libajantv2.so.17.0.1.0:_ZN36AJAAncillaryData_FrameStatusInfo525116ParsePayloadDataEv
libajantv2.so.17.0.1.0:_ZN36AJAAncillaryData_FrameStatusInfo525126RecognizeThisAncillaryDataEPK16AJAAncillaryData
libajantv2.so.17.0.1.0:_ZN36AJAAncillaryData_FrameStatusInfo52514InitEv
libajantv2.so.17.0.1.0:_ZN36AJAAncillaryData_FrameStatusInfo52515ClearEv
libajantv2.so.17.0.1.0:_ZN36AJAAncillaryData_FrameStatusInfo5251C1EPK16AJAAncillaryData
libajantv2.so.17.0.1.0:_ZN36AJAAncillaryData_FrameStatusInfo5251C1EPKS_
libajantv2.so.17.0.1.0:_ZN36AJAAncillaryData_FrameStatusInfo5251C1ERKS_
libajantv2.so.17.0.1.0:_ZN36AJAAncillaryData_FrameStatusInfo5251C1Ev
libajantv2.so.17.0.1.0:_ZN36AJAAncillaryData_FrameStatusInfo5251C2EPK16AJAAncillaryData
libajantv2.so.17.0.1.0:_ZN36AJAAncillaryData_FrameStatusInfo5251C2EPKS_
libajantv2.so.17.0.1.0:_ZN36AJAAncillaryData_FrameStatusInfo5251C2ERKS_
libajantv2.so.17.0.1.0:_ZN36AJAAncillaryData_FrameStatusInfo5251C2Ev
libajantv2.so.17.0.1.0:_ZN36AJAAncillaryData_FrameStatusInfo5251D0Ev
libajantv2.so.17.0.1.0:_ZN36AJAAncillaryData_FrameStatusInfo5251D1Ev
libajantv2.so.17.0.1.0:_ZN36AJAAncillaryData_FrameStatusInfo5251D2Ev
libajantv2.so.17.0.1.0:_ZN36AJAAncillaryData_FrameStatusInfo5251aSERKS_
libajantv2.so.17.0.1.0:_ZN3aja11starts_withERKNSt7__cxx1112basic_stringIcSt11char_traitsIcESaIcEEES7_
libajantv2.so.17.0.1.0:_ZN3aja11starts_withERKNSt7__cxx1112basic_stringIcSt11char_traitsIcESaIcEEEc
libajantv2.so.17.0.1.0:_ZN3aja11starts_withERKNSt7__cxx1112basic_stringIwSt11char_traitsIwESaIwEEES7_
libajantv2.so.17.0.1.0:_ZN3aja11starts_withERKNSt7__cxx1112basic_stringIwSt11char_traitsIwESaIwEEEw
libajantv2.so.17.0.1.0:_ZN3aja13safer_strncpyEPcPKcmm
libajantv2.so.17.0.1.0:_ZN3aja17string_to_cstringERKNSt7__cxx1112basic_stringIcSt11char_traitsIcESaIcEEEPcm
libajantv2.so.17.0.1.0:_ZN3aja17string_to_wstringERKNSt7__cxx1112basic_stringIcSt11char_traitsIcESaIcEEERNS1_IwS2_IwESaIwEEE
libajantv2.so.17.0.1.0:_ZN3aja17wstring_to_stringERKNSt7__cxx1112basic_stringIwSt11char_traitsIwESaIwEEERNS1_IcS2_IcESaIcEEE
libajantv2.so.17.0.1.0:_ZN3aja27reveal_file_in_file_managerERKNSt7__cxx1112basic_stringIcSt11char_traitsIcESaIcEEE
libajantv2.so.17.0.1.0:_ZN3aja4joinERKSt3setINSt7__cxx1112basic_stringIcSt11char_traitsIcESaIcEEESt4lessIS6_ESaIS6_EERKS6_
libajantv2.so.17.0.1.0:_ZN3aja4joinERKSt6vectorINSt7__cxx1112basic_stringIcSt11char_traitsIcESaIcEEESaIS6_EERKS6_
libajantv2.so.17.0.1.0:_ZN3aja4stodERKNSt7__cxx1112basic_stringIcSt11char_traitsIcESaIcEEEPm
libajantv2.so.17.0.1.0:_ZN3aja4stofERKNSt7__cxx1112basic_stringIcSt11char_traitsIcESaIcEEEPm
libajantv2.so.17.0.1.0:_ZN3aja4stoiERKNSt7__cxx1112basic_stringIcSt11char_traitsIcESaIcEEEPmi
libajantv2.so.17.0.1.0:_ZN3aja4stolERKNSt7__cxx1112basic_stringIcSt11char_traitsIcESaIcEEEPmi
libajantv2.so.17.0.1.0:_ZN3aja5lowerERNSt7__cxx1112basic_stringIcSt11char_traitsIcESaIcEEE
libajantv2.so.17.0.1.0:_ZN3aja5splitERKNSt7__cxx1112basic_stringIcSt11char_traitsIcESaIcEEES7_
libajantv2.so.17.0.1.0:_ZN3aja5splitERKNSt7__cxx1112basic_stringIcSt11char_traitsIcESaIcEEEc
libajantv2.so.17.0.1.0:_ZN3aja5splitERKNSt7__cxx1112basic_stringIcSt11char_traitsIcESaIcEEEcRSt6vectorIS5_SaIS5_EE
libajantv2.so.17.0.1.0:_ZN3aja5splitERKNSt7__cxx1112basic_stringIwSt11char_traitsIwESaIwEEES7_
libajantv2.so.17.0.1.0:_ZN3aja5splitERKNSt7__cxx1112basic_stringIwSt11char_traitsIwESaIwEEEw
libajantv2.so.17.0.1.0:_ZN3aja5splitERKNSt7__cxx1112basic_stringIwSt11char_traitsIwESaIwEEEwRSt6vectorIS5_SaIS5_EE
libajantv2.so.17.0.1.0:_ZN3aja5stoldERKNSt7__cxx1112basic_stringIcSt11char_traitsIcESaIcEEEPm
libajantv2.so.17.0.1.0:_ZN3aja5stoulERKNSt7__cxx1112basic_stringIcSt11char_traitsIcESaIcEEEPmi
libajantv2.so.17.0.1.0:_ZN3aja5stripERNSt7__cxx1112basic_stringIcSt11char_traitsIcESaIcEEERKS5_
libajantv2.so.17.0.1.0:_ZN3aja5upperERNSt7__cxx1112basic_stringIcSt11char_traitsIcESaIcEEE
libajantv2.so.17.0.1.0:_ZN3aja6lstripERNSt7__cxx1112basic_stringIcSt11char_traitsIcESaIcEEERKS5_
libajantv2.so.17.0.1.0:_ZN3aja6rstripERNSt7__cxx1112basic_stringIcSt11char_traitsIcESaIcEEERKS5_
libajantv2.so.17.0.1.0:_ZN3aja6stoullERKNSt7__cxx1112basic_stringIcSt11char_traitsIcESaIcEEEPmi
libajantv2.so.17.0.1.0:_ZN3aja7replaceERNSt7__cxx1112basic_stringIcSt11char_traitsIcESaIcEEERKS5_S8_
libajantv2.so.17.0.1.0:_ZN3aja9ends_withERKNSt7__cxx1112basic_stringIcSt11char_traitsIcESaIcEEES7_
libajantv2.so.17.0.1.0:_ZN3aja9ends_withERKNSt7__cxx1112basic_stringIcSt11char_traitsIcESaIcEEEc
libajantv2.so.17.0.1.0:_ZN3aja9ends_withERKNSt7__cxx1112basic_stringIwSt11char_traitsIwESaIwEEES7_
libajantv2.so.17.0.1.0:_ZN3aja9ends_withERKNSt7__cxx1112basic_stringIwSt11char_traitsIwESaIwEEEw
libajantv2.so.17.0.1.0:_ZN3aja9to_stringB5cxx11Eb
libajantv2.so.17.0.1.0:_ZN3aja9to_stringB5cxx11Ed
libajantv2.so.17.0.1.0:_ZN3aja9to_stringB5cxx11Ee
libajantv2.so.17.0.1.0:_ZN3aja9to_stringB5cxx11Ef
libajantv2.so.17.0.1.0:_ZN3aja9to_stringB5cxx11Ei
libajantv2.so.17.0.1.0:_ZN3aja9to_stringB5cxx11Ej
libajantv2.so.17.0.1.0:_ZN3aja9to_stringB5cxx11El
libajantv2.so.17.0.1.0:_ZN3aja9to_stringB5cxx11Em
libajantv2.so.17.0.1.0:_ZN3aja9to_stringB5cxx11Ex
libajantv2.so.17.0.1.0:_ZN3aja9to_stringB5cxx11Ey
libajantv2.so.17.0.1.0:_ZN6AJALogC1Ev
libajantv2.so.17.0.1.0:_ZN6AJALogC2Ev
libajantv2.so.17.0.1.0:_ZN6AJALogD0Ev
libajantv2.so.17.0.1.0:_ZN6AJALogD1Ev
libajantv2.so.17.0.1.0:_ZN6AJALogD2Ev
libajantv2.so.17.0.1.0:_ZN6AJAPnp7InstallEPFv13AJAPnpMessagePvES1_j
libajantv2.so.17.0.1.0:_ZN6AJAPnp9UninstallEv
libajantv2.so.17.0.1.0:_ZN6AJAPnpC1ERKS_
libajantv2.so.17.0.1.0:_ZN6AJAPnpC1Ev
libajantv2.so.17.0.1.0:_ZN6AJAPnpC2ERKS_
libajantv2.so.17.0.1.0:_ZN6AJAPnpC2Ev
libajantv2.so.17.0.1.0:_ZN6AJAPnpD0Ev
libajantv2.so.17.0.1.0:_ZN6AJAPnpD1Ev
libajantv2.so.17.0.1.0:_ZN6AJAPnpD2Ev
libajantv2.so.17.0.1.0:_ZN6AJAPnpaSERKS_
libajantv2.so.17.0.1.0:_ZN6CRP18810GetFieldIDEv
libajantv2.so.17.0.1.0:_ZN6CRP18810InitBurnInE21NTV2FrameBufferFormat19NTV2FrameDimensionsi
libajantv2.so.17.0.1.0:_ZN6CRP18810SetBFGBitsEbbb
libajantv2.so.17.0.1.0:_ZN6CRP18810SetFieldIDEj
libajantv2.so.17.0.1.0:_ZN6CRP18811BinaryGroupEj
libajantv2.so.17.0.1.0:_ZN6CRP18811SetUserBitsEj
libajantv2.so.17.0.1.0:_ZN6CRP18812SetDropFrameEb
libajantv2.so.17.0.1.0:_ZN6CRP18813GetFrameCountERj
libajantv2.so.17.0.1.0:_ZN6CRP18813SetColorFrameEb
libajantv2.so.17.0.1.0:_ZN6CRP18814SetBinaryGroupEjj
libajantv2.so.17.0.1.0:_ZN6CRP18814SetVaricamRateE13NTV2FrameRate
libajantv2.so.17.0.1.0:_ZN6CRP18814SubtractFramesEj
libajantv2.so.17.0.1.0:_ZN6CRP18814writeV210PixelEPPciii
libajantv2.so.17.0.1.0:_ZN6CRP18815ConvertTimecodeERj14TimecodeFormatjjjj
libajantv2.so.17.0.1.0:_ZN6CRP18815RP188ToUserBitsEv
libajantv2.so.17.0.1.0:_ZN6CRP18815SetOutputFilterEh
libajantv2.so.17.0.1.0:_ZN6CRP18816VaricamFrameRateEv
libajantv2.so.17.0.1.0:_ZN6CRP18817ConvertFrameCountEj14TimecodeFormatRjS1_S1_S1_
libajantv2.so.17.0.1.0:_ZN6CRP18817ConvertTcStrToRegEv
libajantv2.so.17.0.1.0:_ZN6CRP18817ConvertTcStrToValEv
libajantv2.so.17.0.1.0:_ZN6CRP18817GetTimeCodeStringB5cxx11Eb
libajantv2.so.17.0.1.0:_ZN6CRP18819GetRP188UserBitsStrERNSt7__cxx1112basic_stringIcSt11char_traitsIcESaIcEEE
libajantv2.so.17.0.1.0:_ZN6CRP18821SetVaricamFrameActiveEbj
libajantv2.so.17.0.1.0:_ZN6CRP18823GetRP188UserBitsCStringEv
libajantv2.so.17.0.1.0:_ZN6CRP1883UDWEj
libajantv2.so.17.0.1.0:_ZN6CRP1884InitEv
libajantv2.so.17.0.1.0:_ZN6CRP1886BurnTCEPci16TimecodeBurnModelb
libajantv2.so.17.0.1.0:_ZN6CRP1888SetRP188ERK10NTV2_RP18814TimecodeFormat
libajantv2.so.17.0.1.0:_ZN6CRP1888SetRP188ERK12RP188_STRUCT14TimecodeFormat
libajantv2.so.17.0.1.0:_ZN6CRP1888SetRP188ERKNSt7__cxx1112basic_stringIcSt11char_traitsIcESaIcEEE14TimecodeFormat
libajantv2.so.17.0.1.0:_ZN6CRP1888SetRP188Ej14TimecodeFormat
libajantv2.so.17.0.1.0:_ZN6CRP1888SetRP188Ejjjj13NTV2FrameRatebb
libajantv2.so.17.0.1.0:_ZN6CRP1888SetRP188Ejjjj14TimecodeFormat
libajantv2.so.17.0.1.0:_ZN6CRP1889AddFramesEj
libajantv2.so.17.0.1.0:_ZN6CRP1889CopyDigitEPciiS0_i
libajantv2.so.17.0.1.0:_ZN6CRP1889SetSourceEh
libajantv2.so.17.0.1.0:_ZN6CRP188C1ERK10NTV2_RP18814TimecodeFormat
libajantv2.so.17.0.1.0:_ZN6CRP188C1ERK12RP188_STRUCT14TimecodeFormat
libajantv2.so.17.0.1.0:_ZN6CRP188C1ERKNSt7__cxx1112basic_stringIcSt11char_traitsIcESaIcEEE14TimecodeFormat
libajantv2.so.17.0.1.0:_ZN6CRP188C1Ej14TimecodeFormat
libajantv2.so.17.0.1.0:_ZN6CRP188C1Ejjjj14TimecodeFormat
libajantv2.so.17.0.1.0:_ZN6CRP188C1Ev
libajantv2.so.17.0.1.0:_ZN6CRP188C2ERK10NTV2_RP18814TimecodeFormat
libajantv2.so.17.0.1.0:_ZN6CRP188C2ERK12RP188_STRUCT14TimecodeFormat
libajantv2.so.17.0.1.0:_ZN6CRP188C2ERKNSt7__cxx1112basic_stringIcSt11char_traitsIcESaIcEEE14TimecodeFormat
libajantv2.so.17.0.1.0:_ZN6CRP188C2Ej14TimecodeFormat
libajantv2.so.17.0.1.0:_ZN6CRP188C2Ejjjj14TimecodeFormat
libajantv2.so.17.0.1.0:_ZN6CRP188C2Ev
libajantv2.so.17.0.1.0:_ZN6CRP188D0Ev
libajantv2.so.17.0.1.0:_ZN6CRP188D1Ev
libajantv2.so.17.0.1.0:_ZN6CRP188D2Ev
libajantv2.so.17.0.1.0:_ZN6CRP188eqERKS_
libajantv2.so.17.0.1.0:_ZN6DpxHdr10set_s2_idsEhhh
libajantv2.so.17.0.1.0:_ZN6DpxHdr12set_ii_linesEj
libajantv2.so.17.0.1.0:_ZN6DpxHdr13set_film_typeERKNSt7__cxx1112basic_stringIcSt11char_traitsIcESaIcEEE
libajantv2.so.17.0.1.0:_ZN6DpxHdr13set_ii_pixelsEj
libajantv2.so.17.0.1.0:_ZN6DpxHdr14set_fi_creatorERKNSt7__cxx1112basic_stringIcSt11char_traitsIcESaIcEEE
libajantv2.so.17.0.1.0:_ZN6DpxHdr14set_fi_projectERKNSt7__cxx1112basic_stringIcSt11char_traitsIcESaIcEEE
libajantv2.so.17.0.1.0:_ZN6DpxHdr14set_fi_versionERKNSt7__cxx1112basic_stringIcSt11char_traitsIcESaIcEEE
libajantv2.so.17.0.1.0:_ZN6DpxHdr14set_film_countERKNSt7__cxx1112basic_stringIcSt11char_traitsIcESaIcEEE
libajantv2.so.17.0.1.0:_ZN6DpxHdr14set_ie_packingEti
libajantv2.so.17.0.1.0:_ZN6DpxHdr14set_s2_tcframeEj
libajantv2.so.17.0.1.0:_ZN6DpxHdr15set_film_formatERKNSt7__cxx1112basic_stringIcSt11char_traitsIcESaIcEEE
libajantv2.so.17.0.1.0:_ZN6DpxHdr15set_film_mfg_idERKNSt7__cxx1112basic_stringIcSt11char_traitsIcESaIcEEE
libajantv2.so.17.0.1.0:_ZN6DpxHdr15set_film_offsetERKNSt7__cxx1112basic_stringIcSt11char_traitsIcESaIcEEE
libajantv2.so.17.0.1.0:_ZN6DpxHdr15set_film_prefixERKNSt7__cxx1112basic_stringIcSt11char_traitsIcESaIcEEE
libajantv2.so.17.0.1.0:_ZN6DpxHdr15set_ie_bit_sizeEhi
libajantv2.so.17.0.1.0:_ZN6DpxHdr15set_ie_encodingEti
libajantv2.so.17.0.1.0:_ZN6DpxHdr15set_ie_transferEhi
libajantv2.so.17.0.1.0:_ZN6DpxHdr15set_is_filenameERKNSt7__cxx1112basic_stringIcSt11char_traitsIcESaIcEEE
libajantv2.so.17.0.1.0:_ZN6DpxHdr15set_tv_timecodeEm
libajantv2.so.17.0.1.0:_ZN6DpxHdr15set_tv_userbitsEm
libajantv2.so.17.0.1.0:_ZN6DpxHdr16get_ie_data_signEi
libajantv2.so.17.0.1.0:_ZN6DpxHdr16set_fi_copyrightERKNSt7__cxx1112basic_stringIcSt11char_traitsIcESaIcEEE
libajantv2.so.17.0.1.0:_ZN6DpxHdr16set_fi_file_nameERKNSt7__cxx1112basic_stringIcSt11char_traitsIcESaIcEEE
libajantv2.so.17.0.1.0:_ZN6DpxHdr16set_fi_file_sizeEm
libajantv2.so.17.0.1.0:_ZN6DpxHdr16set_ie_data_signEji
libajantv2.so.17.0.1.0:_ZN6DpxHdr16set_tv_interlaceEh
libajantv2.so.17.0.1.0:_ZN6DpxHdr17set_fi_time_stampEv
libajantv2.so.17.0.1.0:_ZN6DpxHdr17set_film_frame_idERKNSt7__cxx1112basic_stringIcSt11char_traitsIcESaIcEEE
libajantv2.so.17.0.1.0:_ZN6DpxHdr17set_ie_descriptorEhi
libajantv2.so.17.0.1.0:_ZN6DpxHdr17set_s2_filenumberEj
libajantv2.so.17.0.1.0:_ZN6DpxHdr17set_tv_frame_rateEf
libajantv2.so.17.0.1.0:_ZN6DpxHdr18set_fi_create_timeERKNSt7__cxx1112basic_stringIcSt11char_traitsIcESaIcEEE
libajantv2.so.17.0.1.0:_ZN6DpxHdr18set_ie_data_offsetEji
libajantv2.so.17.0.1.0:_ZN6DpxHdr18set_ie_descriptionERKNSt7__cxx1112basic_stringIcSt11char_traitsIcESaIcEEEi
libajantv2.so.17.0.1.0:_ZN6DpxHdr18set_ie_eol_paddingEji
libajantv2.so.17.0.1.0:_ZN6DpxHdr18set_ii_orientationEt
libajantv2.so.17.0.1.0:_ZN6DpxHdr19set_fi_image_offsetEm
libajantv2.so.17.0.1.0:_ZN6DpxHdr19set_film_frame_rateEf
libajantv2.so.17.0.1.0:_ZN6DpxHdr19set_film_held_countEm
libajantv2.so.17.0.1.0:_ZN6DpxHdr19set_film_slate_infoERKNSt7__cxx1112basic_stringIcSt11char_traitsIcESaIcEEE
libajantv2.so.17.0.1.0:_ZN6DpxHdr19set_ie_colorimetricEhi
libajantv2.so.17.0.1.0:_ZN6DpxHdr19set_ie_ref_low_dataEji
libajantv2.so.17.0.1.0:_ZN6DpxHdr19set_is_input_deviceERKNSt7__cxx1112basic_stringIcSt11char_traitsIcESaIcEEE
libajantv2.so.17.0.1.0:_ZN6DpxHdr19set_is_input_serialERKNSt7__cxx1112basic_stringIcSt11char_traitsIcESaIcEEE
libajantv2.so.17.0.1.0:_ZN6DpxHdr20set_ie_ref_high_dataEji
libajantv2.so.17.0.1.0:_ZN6DpxHdr20set_is_creation_timeERKNSt7__cxx1112basic_stringIcSt11char_traitsIcESaIcEEE
libajantv2.so.17.0.1.0:_ZN6DpxHdr21set_film_sequence_lenEm
libajantv2.so.17.0.1.0:_ZN6DpxHdr21set_ii_element_numberEt
libajantv2.so.17.0.1.0:_ZN6DpxHdr22set_film_shutter_angleEf
libajantv2.so.17.0.1.0:_ZN6DpxHdr23set_film_frame_positionEm
libajantv2.so.17.0.1.0:_ZN6DpxHdr23set_ie_eo_image_paddingEji
libajantv2.so.17.0.1.0:_ZN6DpxHdr23set_ie_ref_low_quantityEfi
libajantv2.so.17.0.1.0:_ZN6DpxHdr24set_ie_ref_high_quantityEfi
libajantv2.so.17.0.1.0:_ZN6DpxHdr4initEj
libajantv2.so.17.0.1.0:_ZN6DpxHdrD1Ev
libajantv2.so.17.0.1.0:_ZN6DpxHdrD2Ev
libajantv2.so.17.0.1.0:_ZN6DpxHdraSERKS_
libajantv2.so.17.0.1.0:_ZN7AJALock4LockEj
libajantv2.so.17.0.1.0:_ZN7AJALock6UnlockEv
libajantv2.so.17.0.1.0:_ZN7AJALockC1EPKc
libajantv2.so.17.0.1.0:_ZN7AJALockC1ERKS_
libajantv2.so.17.0.1.0:_ZN7AJALockC2EPKc
libajantv2.so.17.0.1.0:_ZN7AJALockC2ERKS_
libajantv2.so.17.0.1.0:_ZN7AJALockD0Ev
libajantv2.so.17.0.1.0:_ZN7AJALockD1Ev
libajantv2.so.17.0.1.0:_ZN7AJALockD2Ev
libajantv2.so.17.0.1.0:_ZN7AJALockaSERKS_
libajantv2.so.17.0.1.0:_ZN7AJATime13GetSystemTimeEv
libajantv2.so.17.0.1.0:_ZN7AJATime16GetSystemCounterEv
libajantv2.so.17.0.1.0:_ZN7AJATime16GetSystemSecondsEv
libajantv2.so.17.0.1.0:_ZN7AJATime18GetSystemFrequencyEv
libajantv2.so.17.0.1.0:_ZN7AJATime18SleepInNanosecondsEm
libajantv2.so.17.0.1.0:_ZN7AJATime19SleepInMicrosecondsEi
libajantv2.so.17.0.1.0:_ZN7AJATime20GetSystemNanosecondsEv
libajantv2.so.17.0.1.0:_ZN7AJATime21GetSystemMicrosecondsEv
libajantv2.so.17.0.1.0:_ZN7AJATime21GetSystemMillisecondsEv
libajantv2.so.17.0.1.0:_ZN7AJATime5SleepEi
libajantv2.so.17.0.1.0:_ZN8AJADebug10TotalBytesEv
libajantv2.so.17.0.1.0:_ZN8AJADebug11GetThreadIdEmRm
libajantv2.so.17.0.1.0:_ZN8AJADebug11StatGetInfoEjR12AJADebugStat
libajantv2.so.17.0.1.0:_ZN8AJADebug11StatGetKeysERSt3setIjSt4lessIjESaIjEERj
libajantv2.so.17.0.1.0:_ZN8AJADebug11StatGetKeysERSt6vectorIjSaIjEERj
libajantv2.so.17.0.1.0:_ZN8AJADebug12GetProcessIdEmRm
libajantv2.so.17.0.1.0:_ZN8AJADebug12IsDebugBuildEv
libajantv2.so.17.0.1.0:_ZN8AJADebug12RestoreStateERKNSt7__cxx1112basic_stringIcSt11char_traitsIcESaIcEEE
libajantv2.so.17.0.1.0:_ZN8AJADebug12SeverityNameB5cxx11Ei
libajantv2.so.17.0.1.0:_ZN8AJADebug12StatAllocateEj
libajantv2.so.17.0.1.0:_ZN8AJADebug12StatSetValueEjj
libajantv2.so.17.0.1.0:_ZN8AJADebug13StatTimerStopEj
libajantv2.so.17.0.1.0:_ZN8AJADebug13StatsCapacityEv
libajantv2.so.17.0.1.0:_ZN8AJADebug14GetDestinationEiRj
libajantv2.so.17.0.1.0:_ZN8AJADebug14GetGroupStringEi
libajantv2.so.17.0.1.0:_ZN8AJADebug14GetMessageTextEmPPKc
libajantv2.so.17.0.1.0:_ZN8AJADebug14GetMessageTextEmRNSt7__cxx1112basic_stringIcSt11char_traitsIcESaIcEEE
libajantv2.so.17.0.1.0:_ZN8AJADebug14GetMessageTimeEmRm
libajantv2.so.17.0.1.0:_ZN8AJADebug14SetDestinationEij
libajantv2.so.17.0.1.0:_ZN8AJADebug14StatTimerStartEj
libajantv2.so.17.0.1.0:_ZN8AJADebug15GetMessageGroupEmRi
libajantv2.so.17.0.1.0:_ZN8AJADebug15StatIsAllocatedEj
libajantv2.so.17.0.1.0:_ZN8AJADebug17AssertWithMessageEPKciRKNSt7__cxx1112basic_stringIcSt11char_traitsIcESaIcEEE
libajantv2.so.17.0.1.0:_ZN8AJADebug17GetPrivateDataLenEv
libajantv2.so.17.0.1.0:_ZN8AJADebug17GetPrivateDataLocEv
libajantv2.so.17.0.1.0:_ZN8AJADebug17GetSequenceNumberERm
libajantv2.so.17.0.1.0:_ZN8AJADebug17GetSeverityStringEi
libajantv2.so.17.0.1.0:_ZN8AJADebug18GetMessageFileNameEmPPKc
libajantv2.so.17.0.1.0:_ZN8AJADebug18GetMessageFileNameEmRNSt7__cxx1112basic_stringIcSt11char_traitsIcESaIcEEE
libajantv2.so.17.0.1.0:_ZN8AJADebug18GetMessageSeverityEmRi
libajantv2.so.17.0.1.0:_ZN8AJADebug18GetMessagesIgnoredERm
libajantv2.so.17.0.1.0:_ZN8AJADebug18StatGetSequenceNumERj
libajantv2.so.17.0.1.0:_ZN8AJADebug19GetMessagesAcceptedERm
libajantv2.so.17.0.1.0:_ZN8AJADebug19MessageRingCapacityEv
libajantv2.so.17.0.1.0:_ZN8AJADebug20GetMessageLineNumberEmRi
libajantv2.so.17.0.1.0:_ZN8AJADebug20StatCounterIncrementEjj
libajantv2.so.17.0.1.0:_ZN8AJADebug21GetMessageDestinationEmRj
libajantv2.so.17.0.1.0:_ZN8AJADebug23GetClientReferenceCountERi
libajantv2.so.17.0.1.0:_ZN8AJADebug23GetMessageWallClockTimeEmRl
libajantv2.so.17.0.1.0:_ZN8AJADebug23SetClientReferenceCountEi
libajantv2.so.17.0.1.0:_ZN8AJADebug24GetMessageSequenceNumberEmRm
libajantv2.so.17.0.1.0:_ZN8AJADebug4OpenEb
libajantv2.so.17.0.1.0:_ZN8AJADebug5CloseEb
libajantv2.so.17.0.1.0:_ZN8AJADebug6EnableEij
libajantv2.so.17.0.1.0:_ZN8AJADebug6IsOpenEv
libajantv2.so.17.0.1.0:_ZN8AJADebug6ReportEiiPKciRKNSt7__cxx1112basic_stringIcSt11char_traitsIcESaIcEEE
libajantv2.so.17.0.1.0:_ZN8AJADebug6ReportEiiPKciz
libajantv2.so.17.0.1.0:_ZN8AJADebug7DisableEij
libajantv2.so.17.0.1.0:_ZN8AJADebug7VersionEv
libajantv2.so.17.0.1.0:_ZN8AJADebug8HasStatsEv
libajantv2.so.17.0.1.0:_ZN8AJADebug8IsActiveEi
libajantv2.so.17.0.1.0:_ZN8AJADebug8StatFreeEj
libajantv2.so.17.0.1.0:_ZN8AJADebug9DebugTimeEv
libajantv2.so.17.0.1.0:_ZN8AJADebug9GroupNameB5cxx11Ei
libajantv2.so.17.0.1.0:_ZN8AJADebug9SaveStateERKNSt7__cxx1112basic_stringIcSt11char_traitsIcESaIcEEE
libajantv2.so.17.0.1.0:_ZN8AJADebug9StatResetEj
libajantv2.so.17.0.1.0:_ZN8AJAEvent13WaitForSignalEj
libajantv2.so.17.0.1.0:_ZN8AJAEvent14GetEventObjectEPm
libajantv2.so.17.0.1.0:_ZN8AJAEvent14GetManualResetEPb
libajantv2.so.17.0.1.0:_ZN8AJAEvent14SetManualResetEb
libajantv2.so.17.0.1.0:_ZN8AJAEvent5ClearEv
libajantv2.so.17.0.1.0:_ZN8AJAEvent6SignalEv
libajantv2.so.17.0.1.0:_ZN8AJAEvent8GetStateEPb
libajantv2.so.17.0.1.0:_ZN8AJAEvent8SetStateEb
libajantv2.so.17.0.1.0:_ZN8AJAEventC1EbRKNSt7__cxx1112basic_stringIcSt11char_traitsIcESaIcEEE
libajantv2.so.17.0.1.0:_ZN8AJAEventC2EbRKNSt7__cxx1112basic_stringIcSt11char_traitsIcESaIcEEE
libajantv2.so.17.0.1.0:_ZN8AJAEventD0Ev
libajantv2.so.17.0.1.0:_ZN8AJAEventD1Ev
libajantv2.so.17.0.1.0:_ZN8AJAEventD2Ev
libajantv2.so.17.0.1.0:_ZN8AJATimer13PrecisionNameB5cxx11E17AJATimerPrecisionb
libajantv2.so.17.0.1.0:_ZN8AJATimer13PrecisionSecsE17AJATimerPrecision
libajantv2.so.17.0.1.0:_ZN8AJATimer4StopEv
libajantv2.so.17.0.1.0:_ZN8AJATimer5ResetEv
libajantv2.so.17.0.1.0:_ZN8AJATimer5StartEv
libajantv2.so.17.0.1.0:_ZN8AJATimerC1E17AJATimerPrecision
libajantv2.so.17.0.1.0:_ZN8AJATimerC2E17AJATimerPrecision
libajantv2.so.17.0.1.0:_ZN9AJAAtomic8ExchangeEPVPvS0_
libajantv2.so.17.0.1.0:_ZN9AJAAtomic8ExchangeEPVii
libajantv2.so.17.0.1.0:_ZN9AJAAtomic8ExchangeEPVjj
libajantv2.so.17.0.1.0:_ZN9AJAAtomic8ExchangeEPVll
libajantv2.so.17.0.1.0:_ZN9AJAAtomic8ExchangeEPVmm
libajantv2.so.17.0.1.0:_ZN9AJAAtomic9DecrementEPVi
libajantv2.so.17.0.1.0:_ZN9AJAAtomic9DecrementEPVj
libajantv2.so.17.0.1.0:_ZN9AJAAtomic9DecrementEPVl
libajantv2.so.17.0.1.0:_ZN9AJAAtomic9DecrementEPVm
libajantv2.so.17.0.1.0:_ZN9AJAAtomic9IncrementEPVi
libajantv2.so.17.0.1.0:_ZN9AJAAtomic9IncrementEPVj
libajantv2.so.17.0.1.0:_ZN9AJAAtomic9IncrementEPVl
libajantv2.so.17.0.1.0:_ZN9AJAAtomic9IncrementEPVm
libajantv2.so.17.0.1.0:_ZN9AJABuffer10FreeBufferEv
libajantv2.so.17.0.1.0:_ZN9AJABuffer11GetDataSizeEv
libajantv2.so.17.0.1.0:_ZN9AJABuffer11SetDataSizeEm
libajantv2.so.17.0.1.0:_ZN9AJABuffer12AttachBufferEPhm
libajantv2.so.17.0.1.0:_ZN9AJABuffer13GetBufferNameEv
libajantv2.so.17.0.1.0:_ZN9AJABuffer13GetBufferSizeEv
libajantv2.so.17.0.1.0:_ZN9AJABuffer13GetDataOffsetEv
libajantv2.so.17.0.1.0:_ZN9AJABuffer13SetDataOffsetEm
libajantv2.so.17.0.1.0:_ZN9AJABuffer14AllocateBufferEmmPc
libajantv2.so.17.0.1.0:_ZN9AJABuffer15GetUINT32BufferEv
libajantv2.so.17.0.1.0:_ZN9AJABuffer16ComputeAlignmentEv
libajantv2.so.17.0.1.0:_ZN9AJABuffer18GetBufferAlignmentEv
libajantv2.so.17.0.1.0:_ZN9AJABuffer7GetDataEv
libajantv2.so.17.0.1.0:_ZN9AJABuffer9GetBufferEv
libajantv2.so.17.0.1.0:_ZN9AJABufferC1Ev
libajantv2.so.17.0.1.0:_ZN9AJABufferC2Ev
libajantv2.so.17.0.1.0:_ZN9AJABufferD0Ev
libajantv2.so.17.0.1.0:_ZN9AJABufferD1Ev
libajantv2.so.17.0.1.0:_ZN9AJABufferD2Ev
libajantv2.so.17.0.1.0:_ZN9AJAFileIO10FileExistsERKNSt7__cxx1112basic_stringIcSt11char_traitsIcESaIcEEE
libajantv2.so.17.0.1.0:_ZN9AJAFileIO10FileExistsERKNSt7__cxx1112basic_stringIwSt11char_traitsIwESaIwEEE
libajantv2.so.17.0.1.0:_ZN9AJAFileIO11GetFileNameERKNSt7__cxx1112basic_stringIcSt11char_traitsIcESaIcEEERS5_
libajantv2.so.17.0.1.0:_ZN9AJAFileIO11GetFileNameERKNSt7__cxx1112basic_stringIwSt11char_traitsIwESaIwEEERS5_
libajantv2.so.17.0.1.0:_ZN9AJAFileIO13ReadDirectoryERKNSt7__cxx1112basic_stringIcSt11char_traitsIcESaIcEEES7_RSt6vectorIS5_SaIS5_EE
libajantv2.so.17.0.1.0:_ZN9AJAFileIO13ReadDirectoryERKNSt7__cxx1112basic_stringIwSt11char_traitsIwESaIwEEES7_RSt6vectorIS5_SaIS5_EE
libajantv2.so.17.0.1.0:_ZN9AJAFileIO13TempDirectoryERNSt7__cxx1112basic_stringIcSt11char_traitsIcESaIcEEE
libajantv2.so.17.0.1.0:_ZN9AJAFileIO13TempDirectoryERNSt7__cxx1112basic_stringIwSt11char_traitsIwESaIwEEE
libajantv2.so.17.0.1.0:_ZN9AJAFileIO15DirectoryExistsERKNSt7__cxx1112basic_stringIcSt11char_traitsIcESaIcEEE
libajantv2.so.17.0.1.0:_ZN9AJAFileIO15DirectoryExistsERKNSt7__cxx1112basic_stringIwSt11char_traitsIwESaIwEEE
libajantv2.so.17.0.1.0:_ZN9AJAFileIO16GetDirectoryNameERKNSt7__cxx1112basic_stringIcSt11char_traitsIcESaIcEEERS5_
libajantv2.so.17.0.1.0:_ZN9AJAFileIO16GetDirectoryNameERKNSt7__cxx1112basic_stringIwSt11char_traitsIwESaIwEEERS5_
libajantv2.so.17.0.1.0:_ZN9AJAFileIO16IsDirectoryEmptyERKNSt7__cxx1112basic_stringIcSt11char_traitsIcESaIcEEE
libajantv2.so.17.0.1.0:_ZN9AJAFileIO16IsDirectoryEmptyERKNSt7__cxx1112basic_stringIwSt11char_traitsIwESaIwEEE
libajantv2.so.17.0.1.0:_ZN9AJAFileIO17GetExecutablePathERNSt7__cxx1112basic_stringIcSt11char_traitsIcESaIcEEE
libajantv2.so.17.0.1.0:_ZN9AJAFileIO17GetExecutablePathERNSt7__cxx1112basic_stringIwSt11char_traitsIwESaIwEEE
libajantv2.so.17.0.1.0:_ZN9AJAFileIO18DoesDirectoryExistERKNSt7__cxx1112basic_stringIcSt11char_traitsIcESaIcEEE
libajantv2.so.17.0.1.0:_ZN9AJAFileIO18DoesDirectoryExistERKNSt7__cxx1112basic_stringIwSt11char_traitsIwESaIwEEE
libajantv2.so.17.0.1.0:_ZN9AJAFileIO19GetWorkingDirectoryERNSt7__cxx1112basic_stringIcSt11char_traitsIcESaIcEEE
libajantv2.so.17.0.1.0:_ZN9AJAFileIO19GetWorkingDirectoryERNSt7__cxx1112basic_stringIwSt11char_traitsIwESaIwEEE
libajantv2.so.17.0.1.0:_ZN9AJAFileIO20DoesDirectoryContainERKNSt7__cxx1112basic_stringIcSt11char_traitsIcESaIcEEES7_
libajantv2.so.17.0.1.0:_ZN9AJAFileIO20DoesDirectoryContainERKNSt7__cxx1112basic_stringIwSt11char_traitsIwESaIwEEES7_
libajantv2.so.17.0.1.0:_ZN9AJAFileIO4OpenERKNSt7__cxx1112basic_stringIcSt11char_traitsIcESaIcEEEii
libajantv2.so.17.0.1.0:_ZN9AJAFileIO4OpenERKNSt7__cxx1112basic_stringIwSt11char_traitsIwESaIwEEEii
libajantv2.so.17.0.1.0:_ZN9AJAFileIO4ReadEPhj
libajantv2.so.17.0.1.0:_ZN9AJAFileIO4ReadERNSt7__cxx1112basic_stringIcSt11char_traitsIcESaIcEEEj
libajantv2.so.17.0.1.0:_ZN9AJAFileIO4SyncEv
libajantv2.so.17.0.1.0:_ZN9AJAFileIO4TellEv
libajantv2.so.17.0.1.0:_ZN9AJAFileIO5CloseEv
libajantv2.so.17.0.1.0:_ZN9AJAFileIO6DeleteERKNSt7__cxx1112basic_stringIcSt11char_traitsIcESaIcEEE
libajantv2.so.17.0.1.0:_ZN9AJAFileIO6DeleteERKNSt7__cxx1112basic_stringIwSt11char_traitsIwESaIwEEE
libajantv2.so.17.0.1.0:_ZN9AJAFileIO6IsOpenEv
libajantv2.so.17.0.1.0:_ZN9AJAFileIO8FileInfoERlS0_S0_
libajantv2.so.17.0.1.0:_ZN9AJAFileIO8FileInfoERlS0_S0_RNSt7__cxx1112basic_stringIcSt11char_traitsIcESaIcEEE
libajantv2.so.17.0.1.0:_ZN9AJAFileIO8TruncateEi
libajantv2.so.17.0.1.0:_ZN9AJAFileIO9SetHandleEP8_IO_FILE
libajantv2.so.17.0.1.0:_ZN9AJAFileIOC1Ev
libajantv2.so.17.0.1.0:_ZN9AJAFileIOC2Ev
libajantv2.so.17.0.1.0:_ZN9AJAFileIOD1Ev
libajantv2.so.17.0.1.0:_ZN9AJAFileIOD2Ev
libajantv2.so.17.0.1.0:_ZN9AJAMemory10FreeSharedEPv
libajantv2.so.17.0.1.0:_ZN9AJAMemory11FreeAlignedEPv
libajantv2.so.17.0.1.0:_ZN9AJAMemory14AllocateSharedEPmPKcb
libajantv2.so.17.0.1.0:_ZN9AJAMemory15AllocateAlignedEmm
libajantv2.so.17.0.1.0:_ZN9AJAMemory4FreeEPv
libajantv2.so.17.0.1.0:_ZN9AJAMemory8AllocateEm
libajantv2.so.17.0.1.0:_ZN9AJAMemoryC1Ev
libajantv2.so.17.0.1.0:_ZN9AJAMemoryC2Ev
libajantv2.so.17.0.1.0:_ZN9AJAMemoryD0Ev
libajantv2.so.17.0.1.0:_ZN9AJAMemoryD1Ev
libajantv2.so.17.0.1.0:_ZN9AJAMemoryD2Ev
libajantv2.so.17.0.1.0:_ZN9AJAThread10ThreadInitEv
libajantv2.so.17.0.1.0:_ZN9AJAThread10ThreadLoopEv
libajantv2.so.17.0.1.0:_ZN9AJAThread11GetPriorityEP17AJAThreadPriority
libajantv2.so.17.0.1.0:_ZN9AJAThread11GetThreadIdEv
libajantv2.so.17.0.1.0:_ZN9AJAThread11SetPriorityE17AJAThreadPriority
libajantv2.so.17.0.1.0:_ZN9AJAThread11SetRealTimeE23AJAThreadRealTimePolicyi
libajantv2.so.17.0.1.0:_ZN9AJAThread11ThreadFlushEv
libajantv2.so.17.0.1.0:_ZN9AJAThread13SetThreadNameEPKc
libajantv2.so.17.0.1.0:_ZN9AJAThread15IsCurrentThreadEv
libajantv2.so.17.0.1.0:_ZN9AJAThread4KillEj
libajantv2.so.17.0.1.0:_ZN9AJAThread4StopEj
libajantv2.so.17.0.1.0:_ZN9AJAThread5StartEv
libajantv2.so.17.0.1.0:_ZN9AJAThread6ActiveEv
libajantv2.so.17.0.1.0:_ZN9AJAThread6AttachEPFvPS_PvES1_
libajantv2.so.17.0.1.0:_ZN9AJAThread9TerminateEv
libajantv2.so.17.0.1.0:_ZN9AJAThread9ThreadRunEv
libajantv2.so.17.0.1.0:_ZN9AJAThreadC1Ev
libajantv2.so.17.0.1.0:_ZN9AJAThreadC2Ev
libajantv2.so.17.0.1.0:_ZN9AJAThreadD0Ev
libajantv2.so.17.0.1.0:_ZN9AJAThreadD1Ev
libajantv2.so.17.0.1.0:_ZN9AJAThreadD2Ev
libajantv2.so.17.0.1.0:_ZN9CNTV2Card10CanConnectE21NTV2InputCrosspointID22NTV2OutputCrosspointIDRb
libajantv2.so.17.0.1.0:_ZN9CNTV2Card10DMAReadAncEjR10NTV2BufferS1_11NTV2Channel
libajantv2.so.17.0.1.0:_ZN9CNTV2Card10DisconnectE21NTV2InputCrosspointID
libajantv2.so.17.0.1.0:_ZN9CNTV2Card10GetForce64EPj
libajantv2.so.17.0.1.0:_ZN9CNTV2Card10GetHDRDataER12HDRRegValues
libajantv2.so.17.0.1.0:_ZN9CNTV2Card10GetHDRDataER14HDRFloatValues
libajantv2.so.17.0.1.0:_ZN9CNTV2Card10GetRoutingER17CNTV2SignalRouter
libajantv2.so.17.0.1.0:_ZN9CNTV2Card10GetSDILockE11NTV2Channel
libajantv2.so.17.0.1.0:_ZN9CNTV2Card10SetForce64Ej
libajantv2.so.17.0.1.0:_ZN9CNTV2Card10SetHDRDataERK12HDRRegValues
libajantv2.so.17.0.1.0:_ZN9CNTV2Card10SetHDRDataERK14HDRFloatValues
libajantv2.so.17.0.1.0:_ZN9CNTV2Card11DMAWriteAncEjR10NTV2BufferS1_11NTV2Channel
libajantv2.so.17.0.1.0:_ZN9CNTV2Card11GetLEDStateERj
libajantv2.so.17.0.1.0:_ZN9CNTV2Card11GetSmpte372ERj11NTV2Channel
libajantv2.so.17.0.1.0:_ZN9CNTV2Card11GetStandardER12NTV2Standard11NTV2Channel
libajantv2.so.17.0.1.0:_ZN9CNTV2Card11GetVANCModeER12NTV2VANCMode11NTV2Channel
libajantv2.so.17.0.1.0:_ZN9CNTV2Card11IsConnectedE21NTV2InputCrosspointIDRb
libajantv2.so.17.0.1.0:_ZN9CNTV2Card11SetLEDStateEj
libajantv2.so.17.0.1.0:_ZN9CNTV2Card11SetSmpte372Ej11NTV2Channel
libajantv2.so.17.0.1.0:_ZN9CNTV2Card11SetStandardE12NTV2Standard11NTV2Channel
libajantv2.so.17.0.1.0:_ZN9CNTV2Card11SetVANCModeE12NTV2VANCMode11NTV2Channel
libajantv2.so.17.0.1.0:_ZN9CNTV2Card11SetVANCModeERKSt3setI11NTV2ChannelSt4lessIS1_ESaIS1_EE12NTV2VANCMode
libajantv2.so.17.0.1.0:_ZN9CNTV2Card12ClearRoutingEv
libajantv2.so.17.0.1.0:_ZN9CNTV2Card12DMAReadAudioE15NTV2AudioSystemPjjj
libajantv2.so.17.0.1.0:_ZN9CNTV2Card12DMAReadFrameEjPjj
libajantv2.so.17.0.1.0:_ZN9CNTV2Card12DMAReadFrameEjPjj11NTV2Channel
libajantv2.so.17.0.1.0:_ZN9CNTV2Card12FlipFlopPageE11NTV2Channel
libajantv2.so.17.0.1.0:_ZN9CNTV2Card12GetAudioRateER13NTV2AudioRate15NTV2AudioSystem
libajantv2.so.17.0.1.0:_ZN9CNTV2Card12GetFrameInfoE11NTV2ChannelR17NTV2FrameGeometryR21NTV2FrameBufferFormat
libajantv2.so.17.0.1.0:_ZN9CNTV2Card12GetFrameRateER13NTV2FrameRate11NTV2Channel
libajantv2.so.17.0.1.0:_ZN9CNTV2Card12GetLUTTablesERSt6vectorIdSaIdEES3_S3_
libajantv2.so.17.0.1.0:_ZN9CNTV2Card12GetMixerModeEtR18NTV2MixerKeyerMode
libajantv2.so.17.0.1.0:_ZN9CNTV2Card12GetModelNameB5cxx11Ev
libajantv2.so.17.0.1.0:_ZN9CNTV2Card12GetRP188DataE11NTV2ChannelR10NTV2_RP188
libajantv2.so.17.0.1.0:_ZN9CNTV2Card12GetRP188ModeE11NTV2ChannelR14NTV2_RP188Mode
libajantv2.so.17.0.1.0:_ZN9CNTV2Card12GetReferenceER19NTV2ReferenceSource
libajantv2.so.17.0.1.0:_ZN9CNTV2Card12IsSDStandardERb11NTV2Channel
libajantv2.so.17.0.1.0:_ZN9CNTV2Card12LoadLUTTableEPKd
libajantv2.so.17.0.1.0:_ZN9CNTV2Card12SetAudioRateE13NTV2AudioRate15NTV2AudioSystem
libajantv2.so.17.0.1.0:_ZN9CNTV2Card12SetFrameRateE13NTV2FrameRate11NTV2Channel
libajantv2.so.17.0.1.0:_ZN9CNTV2Card12SetLUTEnableEb11NTV2Channel
libajantv2.so.17.0.1.0:_ZN9CNTV2Card12SetMixerModeEt18NTV2MixerKeyerMode
libajantv2.so.17.0.1.0:_ZN9CNTV2Card12SetRP188DataE11NTV2ChannelRK10NTV2_RP188
libajantv2.so.17.0.1.0:_ZN9CNTV2Card12SetRP188ModeE11NTV2Channel14NTV2_RP188Mode
libajantv2.so.17.0.1.0:_ZN9CNTV2Card12SetReferenceE19NTV2ReferenceSourceb
libajantv2.so.17.0.1.0:_ZN9CNTV2Card13AncInsertInitEt11NTV2Channel12NTV2Standard
libajantv2.so.17.0.1.0:_ZN9CNTV2Card13DMABufferLockERK10NTV2Bufferbb
libajantv2.so.17.0.1.0:_ZN9CNTV2Card13DMAStreamStopE11NTV2Channelb
libajantv2.so.17.0.1.0:_ZN9CNTV2Card13DMAWriteAudioE15NTV2AudioSystemPKjjj
libajantv2.so.17.0.1.0:_ZN9CNTV2Card13DMAWriteFrameEjPKjj
libajantv2.so.17.0.1.0:_ZN9CNTV2Card13DMAWriteFrameEjPKjj11NTV2Channel
libajantv2.so.17.0.1.0:_ZN9CNTV2Card13DeviceIsDNxIVEv
libajantv2.so.17.0.1.0:_ZN9CNTV2Card13EnableChannelE11NTV2Channel
libajantv2.so.17.0.1.0:_ZN9CNTV2Card13EnableHDMIHDREb
libajantv2.so.17.0.1.0:_ZN9CNTV2Card13GetDieVoltageERd
libajantv2.so.17.0.1.0:_ZN9CNTV2Card13GetFrameStampE14NTV2CrosspointjP18FRAME_STAMP_STRUCT
libajantv2.so.17.0.1.0:_ZN9CNTV2Card13GetHDMIV2ModeER14NTV2HDMIV2Mode
libajantv2.so.17.0.1.0:_ZN9CNTV2Card13GetInputFrameE11NTV2ChannelRj
libajantv2.so.17.0.1.0:_ZN9CNTV2Card13GetSDIOutVPIDERjS0_t
libajantv2.so.17.0.1.0:_ZN9CNTV2Card13GetVPIDValidAE11NTV2Channel
libajantv2.so.17.0.1.0:_ZN9CNTV2Card13GetVPIDValidBE11NTV2Channel
libajantv2.so.17.0.1.0:_ZN9CNTV2Card13HevcDebugInfoEP15HevcDeviceDebug
libajantv2.so.17.0.1.0:_ZN9CNTV2Card13HevcGetStatusEP16HevcDeviceStatus
libajantv2.so.17.0.1.0:_ZN9CNTV2Card13IsConnectedToE21NTV2InputCrosspointID22NTV2OutputCrosspointIDRb
libajantv2.so.17.0.1.0:_ZN9CNTV2Card13LoadLUTTablesERKSt6vectorIdSaIdEES4_S4_
libajantv2.so.17.0.1.0:_ZN9CNTV2Card13ReadLUTTablesERSt6vectorItSaItEES3_S3_
libajantv2.so.17.0.1.0:_ZN9CNTV2Card13ReadLineCountERj
libajantv2.so.17.0.1.0:_ZN9CNTV2Card13ReadSDIInVPIDE11NTV2ChannelRjS1_
libajantv2.so.17.0.1.0:_ZN9CNTV2Card13SetHDMIV2ModeE14NTV2HDMIV2Mode
libajantv2.so.17.0.1.0:_ZN9CNTV2Card13SetInputFrameE11NTV2Channelj
libajantv2.so.17.0.1.0:_ZN9CNTV2Card13SetSDIOutVPIDEjjt
libajantv2.so.17.0.1.0:_ZN9CNTV2Card14AncExtractInitEt11NTV2Channel12NTV2Standard
libajantv2.so.17.0.1.0:_ZN9CNTV2Card14DMAStreamStartEPjj11NTV2Channelb
libajantv2.so.17.0.1.0:_ZN9CNTV2Card14DisableChannelE11NTV2Channel
libajantv2.so.17.0.1.0:_ZN9CNTV2Card14EnableChannelsERKSt3setI11NTV2ChannelSt4lessIS1_ESaIS1_EEb
libajantv2.so.17.0.1.0:_ZN9CNTV2Card14GetBaseAddressE11NTV2ChannelPPj
libajantv2.so.17.0.1.0:_ZN9CNTV2Card14GetBaseAddressEPPj
libajantv2.so.17.0.1.0:_ZN9CNTV2Card14GetConnectionsERSt3mapI21NTV2InputCrosspointID22NTV2OutputCrosspointIDSt4lessIS1_ESaISt4pairIKS1_S2_EEE
libajantv2.so.17.0.1.0:_ZN9CNTV2Card14GetDisplayNameB5cxx11Ev
libajantv2.so.17.0.1.0:_ZN9CNTV2Card14GetEncodeAsPSFE11NTV2ChannelR15NTV2EncodeAsPSF
libajantv2.so.17.0.1.0:_ZN9CNTV2Card14GetOutputFrameE11NTV2ChannelRj
libajantv2.so.17.0.1.0:_ZN9CNTV2Card14GetPCIDeviceIDERj
libajantv2.so.17.0.1.0:_ZN9CNTV2Card14GetRS422ParityE11NTV2ChannelR17NTV2_RS422_PARITY
libajantv2.so.17.0.1.0:_ZN9CNTV2Card14GetSDITRSErrorE11NTV2Channel
libajantv2.so.17.0.1.0:_ZN9CNTV2Card14GetVideoFormatER16_NTV2VideoFormat11NTV2Channel
libajantv2.so.17.0.1.0:_ZN9CNTV2Card14Load1DLUTTableE11NTV2Channel
libajantv2.so.17.0.1.0:_ZN9CNTV2Card14Load3DLUTTableEv
libajantv2.so.17.0.1.0:_ZN9CNTV2Card14SetEncodeAsPSFE11NTV2Channel15NTV2EncodeAsPSF
libajantv2.so.17.0.1.0:_ZN9CNTV2Card14SetOutputFrameE11NTV2Channelj
libajantv2.so.17.0.1.0:_ZN9CNTV2Card14SetRS422ParityE11NTV2Channel17NTV2_RS422_PARITY
libajantv2.so.17.0.1.0:_ZN9CNTV2Card14SetVideoFormatE16_NTV2VideoFormatbb11NTV2Channel
libajantv2.so.17.0.1.0:_ZN9CNTV2Card14SetVideoFormatERKSt3setI11NTV2ChannelSt4lessIS1_ESaIS1_EE16_NTV2VideoFormatb
libajantv2.so.17.0.1.0:_ZN9CNTV2Card14StopAudioInputE15NTV2AudioSystem
libajantv2.so.17.0.1.0:_ZN9CNTV2Card14SubscribeEventE17_INTERRUPT_ENUMS_
libajantv2.so.17.0.1.0:_ZN9CNTV2Card14WriteLUTTablesERKSt6vectorItSaItEES4_S4_
libajantv2.so.17.0.1.0:_ZN9CNTV2Card14WriteRegistersERKSt6vectorI11NTV2RegInfoSaIS1_EE
libajantv2.so.17.0.1.0:_ZN9CNTV2Card14WriteSDIInVPIDE11NTV2Channeljj
libajantv2.so.17.0.1.0:_ZN9CNTV2Card15CanWarmBootFPGAERb
libajantv2.so.17.0.1.0:_ZN9CNTV2Card15CopyVideoFormatE11NTV2ChannelS0_S0_
libajantv2.so.17.0.1.0:_ZN9CNTV2Card15DMABufferUnlockERK10NTV2Buffer
libajantv2.so.17.0.1.0:_ZN9CNTV2Card15DMAReadSegmentsEjPjjjjjj
libajantv2.so.17.0.1.0:_ZN9CNTV2Card15DisableChannelsERKSt3setI11NTV2ChannelSt4lessIS1_ESaIS1_EE
libajantv2.so.17.0.1.0:_ZN9CNTV2Card15DownloadLUTToHWEPKd11NTV2Channeli
libajantv2.so.17.0.1.0:_ZN9CNTV2Card15DownloadLUTToHWERKSt6vectorIdSaIdEES4_S4_11NTV2Channeli
libajantv2.so.17.0.1.0:_ZN9CNTV2Card15DownloadLUTToHWERKSt6vectorItSaItEES4_S4_11NTV2Channeli
libajantv2.so.17.0.1.0:_ZN9CNTV2Card15EnableInterruptE17_INTERRUPT_ENUMS_
libajantv2.so.17.0.1.0:_ZN9CNTV2Card15GetBaseDeviceIDEv
libajantv2.so.17.0.1.0:_ZN9CNTV2Card15GetHDMIOutRangeER13NTV2HDMIRange
libajantv2.so.17.0.1.0:_ZN9CNTV2Card15GetHDMIOutTsiIOERb
libajantv2.so.17.0.1.0:_ZN9CNTV2Card15GetInputFieldIDE11NTV2ChannelR11NTV2FieldID
libajantv2.so.17.0.1.0:_ZN9CNTV2Card15GetPulldownModeE11NTV2ChannelRb
libajantv2.so.17.0.1.0:_ZN9CNTV2Card15GetSDIInputRateE11NTV2Channel
libajantv2.so.17.0.1.0:_ZN9CNTV2Card15GetSerialNumberEv
libajantv2.so.17.0.1.0:_ZN9CNTV2Card15GetTransmitSDIsERSt3setI11NTV2ChannelSt4lessIS1_ESaIS1_EE
libajantv2.so.17.0.1.0:_ZN9CNTV2Card15GetUCAutoLine21ERj
libajantv2.so.17.0.1.0:_ZN9CNTV2Card15GetUCPassLine21ERj
libajantv2.so.17.0.1.0:_ZN9CNTV2Card15GetVPIDRGBRangeER16NTV2VPIDRGBRange11NTV2Channel
libajantv2.so.17.0.1.0:_ZN9CNTV2Card15GetVideoDACModeER16NTV2VideoDACMode
libajantv2.so.17.0.1.0:_ZN9CNTV2Card15GetVideoHOffsetERit
libajantv2.so.17.0.1.0:_ZN9CNTV2Card15GetVideoVOffsetERit
libajantv2.so.17.0.1.0:_ZN9CNTV2Card15HevcSendCommandEP17HevcDeviceCommand
libajantv2.so.17.0.1.0:_ZN9CNTV2Card15IsDynamicDeviceEv
libajantv2.so.17.0.1.0:_ZN9CNTV2Card15KickSDIWatchdogEv
libajantv2.so.17.0.1.0:_ZN9CNTV2Card15ReadAudioLastInERj15NTV2AudioSystem
libajantv2.so.17.0.1.0:_ZN9CNTV2Card15ReadAudioSourceERj11NTV2Channel
libajantv2.so.17.0.1.0:_ZN9CNTV2Card15ReadVirtualDataEjPvj
libajantv2.so.17.0.1.0:_ZN9CNTV2Card15SetHDMIHDRDCIP3Ev
libajantv2.so.17.0.1.0:_ZN9CNTV2Card15SetHDMIOutRangeE13NTV2HDMIRange
libajantv2.so.17.0.1.0:_ZN9CNTV2Card15SetHDMIOutTsiIOEb
libajantv2.so.17.0.1.0:_ZN9CNTV2Card15SetPulldownModeE11NTV2Channelb
libajantv2.so.17.0.1.0:_ZN9CNTV2Card15SetUCAutoLine21Ej
libajantv2.so.17.0.1.0:_ZN9CNTV2Card15SetUCPassLine21Ej
libajantv2.so.17.0.1.0:_ZN9CNTV2Card15SetVPIDRGBRangeE16NTV2VPIDRGBRange11NTV2Channel
libajantv2.so.17.0.1.0:_ZN9CNTV2Card15SetVideoDACModeE16NTV2VideoDACMode
libajantv2.so.17.0.1.0:_ZN9CNTV2Card15SetVideoHOffsetEit
libajantv2.so.17.0.1.0:_ZN9CNTV2Card15SetVideoVOffsetEit
libajantv2.so.17.0.1.0:_ZN9CNTV2Card15StartAudioInputE15NTV2AudioSystemb
libajantv2.so.17.0.1.0:_ZN9CNTV2Card15StopAudioOutputE15NTV2AudioSystem
libajantv2.so.17.0.1.0:_ZN9CNTV2Card16AbortMailBoxLockEv
libajantv2.so.17.0.1.0:_ZN9CNTV2Card16ApplySignalRouteERK17CNTV2SignalRouterb
libajantv2.so.17.0.1.0:_ZN9CNTV2Card16ApplySignalRouteERKSt3mapI21NTV2InputCrosspointID22NTV2OutputCrosspointIDSt4lessIS1_ESaISt4pairIKS1_S2_EEEb
libajantv2.so.17.0.1.0:_ZN9CNTV2Card16DMAWriteLUTTableEjPKjjj
libajantv2.so.17.0.1.0:_ZN9CNTV2Card16DMAWriteSegmentsEjPKjjjjjj
libajantv2.so.17.0.1.0:_ZN9CNTV2Card16DeviceCanDo3GOutEt
libajantv2.so.17.0.1.0:_ZN9CNTV2Card16DisableInterruptE17_INTERRUPT_ENUMS_
libajantv2.so.17.0.1.0:_ZN9CNTV2Card16GetAudioLoopBackER17NTV2AudioLoopBack15NTV2AudioSystem
libajantv2.so.17.0.1.0:_ZN9CNTV2Card16GetAutoCirculateE14NTV2CrosspointP27AUTOCIRCULATE_STATUS_STRUCT
libajantv2.so.17.0.1.0:_ZN9CNTV2Card16GetDeviceVersionEv
libajantv2.so.17.0.1.0:_ZN9CNTV2Card16GetFrameGeometryER17NTV2FrameGeometry11NTV2Channel
libajantv2.so.17.0.1.0:_ZN9CNTV2Card16GetHDMIOut3DModeER17NTV2HDMIOut3DMode
libajantv2.so.17.0.1.0:_ZN9CNTV2Card16GetHDMIOutStatusER20NTV2HDMIOutputStatus
libajantv2.so.17.0.1.0:_ZN9CNTV2Card16GetMixerRGBRangeEtR17NTV2MixerRGBRange
libajantv2.so.17.0.1.0:_ZN9CNTV2Card16GetOutputFieldIDE11NTV2ChannelR11NTV2FieldID
libajantv2.so.17.0.1.0:_ZN9CNTV2Card16GetProgramStatusEP32SSC_GET_FIRMWARE_PROGRESS_STRUCT
libajantv2.so.17.0.1.0:_ZN9CNTV2Card16GetRS422BaudRateE11NTV2ChannelR20NTV2_RS422_BAUD_RATE
libajantv2.so.17.0.1.0:_ZN9CNTV2Card16GetRawAudioTimerERj15NTV2AudioSystem
libajantv2.so.17.0.1.0:_ZN9CNTV2Card16GetUpConvertModeER17NTV2UpConvertMode
libajantv2.so.17.0.1.0:_ZN9CNTV2Card16GetVANCShiftModeE11NTV2ChannelR21NTV2VANCDataShiftMode
libajantv2.so.17.0.1.0:_ZN9CNTV2Card16GetVPIDLuminanceER17NTV2VPIDLuminance11NTV2Channel
libajantv2.so.17.0.1.0:_ZN9CNTV2Card16GetVideoLimitingER17NTV2VideoLimiting
libajantv2.so.17.0.1.0:_ZN9CNTV2Card16HevcReadRegisterEjPjjj
libajantv2.so.17.0.1.0:_ZN9CNTV2Card16IsChannelEnabledE11NTV2ChannelRb
libajantv2.so.17.0.1.0:_ZN9CNTV2Card16ProgramMainFlashERKNSt7__cxx1112basic_stringIcSt11char_traitsIcESaIcEEEbb
libajantv2.so.17.0.1.0:_ZN9CNTV2Card16ReadAudioLastOutERj15NTV2AudioSystem
libajantv2.so.17.0.1.0:_ZN9CNTV2Card16SetAudioLoopBackE17NTV2AudioLoopBack15NTV2AudioSystem
libajantv2.so.17.0.1.0:_ZN9CNTV2Card16SetAudioLoopBackE17NTV2AudioLoopBackRKSt3setI15NTV2AudioSystemSt4lessIS2_ESaIS2_EE
libajantv2.so.17.0.1.0:_ZN9CNTV2Card16SetFrameGeometryE17NTV2FrameGeometryb11NTV2Channel
libajantv2.so.17.0.1.0:_ZN9CNTV2Card16SetHDMIHDRBT2020Ev
libajantv2.so.17.0.1.0:_ZN9CNTV2Card16SetHDMIOut3DModeE17NTV2HDMIOut3DMode
libajantv2.so.17.0.1.0:_ZN9CNTV2Card16SetMixerRGBRangeEt17NTV2MixerRGBRange
libajantv2.so.17.0.1.0:_ZN9CNTV2Card16SetRS422BaudRateE11NTV2Channel20NTV2_RS422_BAUD_RATE
libajantv2.so.17.0.1.0:_ZN9CNTV2Card16SetUpConvertModeE17NTV2UpConvertMode
libajantv2.so.17.0.1.0:_ZN9CNTV2Card16SetVANCShiftModeE11NTV2Channel21NTV2VANCDataShiftMode
libajantv2.so.17.0.1.0:_ZN9CNTV2Card16SetVANCShiftModeERSt3setI11NTV2ChannelSt4lessIS1_ESaIS1_EE21NTV2VANCDataShiftMode
libajantv2.so.17.0.1.0:_ZN9CNTV2Card16SetVPIDLuminanceE17NTV2VPIDLuminance11NTV2Channel
libajantv2.so.17.0.1.0:_ZN9CNTV2Card16SetVideoLimitingE17NTV2VideoLimiting
libajantv2.so.17.0.1.0:_ZN9CNTV2Card16StartAudioOutputE15NTV2AudioSystemb
libajantv2.so.17.0.1.0:_ZN9CNTV2Card16UnsubscribeEventE17_INTERRUPT_ENUMS_
libajantv2.so.17.0.1.0:_ZN9CNTV2Card16WriteAudioSourceEj11NTV2Channel
libajantv2.so.17.0.1.0:_ZN9CNTV2Card16WriteVirtualDataEjPKvj
libajantv2.so.17.0.1.0:_ZN9CNTV2Card17AddDynamicBitfileERKNSt7__cxx1112basic_stringIcSt11char_traitsIcESaIcEEE
libajantv2.so.17.0.1.0:_ZN9CNTV2Card17AutoCirculateStopE11NTV2Channelb
libajantv2.so.17.0.1.0:_ZN9CNTV2Card17AutoCirculateStopERKSt3setI11NTV2ChannelSt4lessIS1_ESaIS1_EEb
libajantv2.so.17.0.1.0:_ZN9CNTV2Card17DMABufferAutoLockEbbm
libajantv2.so.17.0.1.0:_ZN9CNTV2Card17DMAClearAncRegionEtt23NTV2AncillaryDataRegion11NTV2Channel
libajantv2.so.17.0.1.0:_ZN9CNTV2Card17DeviceCanDoFormatE13NTV2FrameRate17NTV2FrameGeometry12NTV2Standard
libajantv2.so.17.0.1.0:_ZN9CNTV2Card17DeviceCanDoWidgetE12NTV2WidgetID
libajantv2.so.17.0.1.0:_ZN9CNTV2Card17DeviceHasMicInputEv
libajantv2.so.17.0.1.0:_ZN9CNTV2Card17DmaP2PTargetFrameE11NTV2ChanneljjP24AUTOCIRCULATE_P2P_STRUCT
libajantv2.so.17.0.1.0:_ZN9CNTV2Card17Enable4KDCRGBModeEb
libajantv2.so.17.0.1.0:_ZN9CNTV2Card17EnableRP188BypassE11NTV2Channel
libajantv2.so.17.0.1.0:_ZN9CNTV2Card17Get12BitLUTTablesERSt6vectorIdSaIdEES3_S3_
libajantv2.so.17.0.1.0:_ZN9CNTV2Card17GetAudio20BitModeE15NTV2AudioSystemRb
libajantv2.so.17.0.1.0:_ZN9CNTV2Card17GetCRCErrorCountAE11NTV2Channel
libajantv2.so.17.0.1.0:_ZN9CNTV2Card17GetCRCErrorCountBE11NTV2Channel
libajantv2.so.17.0.1.0:_ZN9CNTV2Card17GetConnectedInputE22NTV2OutputCrosspointIDR21NTV2InputCrosspointID
libajantv2.so.17.0.1.0:_ZN9CNTV2Card17GetConversionModeER18NTV2ConversionMode
libajantv2.so.17.0.1.0:_ZN9CNTV2Card17GetDieTemperatureERd16NTV2DieTempScale
libajantv2.so.17.0.1.0:_ZN9CNTV2Card17GetHDMIHDREnabledEv
libajantv2.so.17.0.1.0:_ZN9CNTV2Card17GetHDMIInBitDepthER16NTV2HDMIBitDepth11NTV2Channel
libajantv2.so.17.0.1.0:_ZN9CNTV2Card17GetHDMIInIsLockedERb11NTV2Channel
libajantv2.so.17.0.1.0:_ZN9CNTV2Card17GetHDMIInProtocolER16NTV2HDMIProtocol11NTV2Channel
libajantv2.so.17.0.1.0:_ZN9CNTV2Card17GetHDMIInputColorER21NTV2LHIHDMIColorSpace11NTV2Channel
libajantv2.so.17.0.1.0:_ZN9CNTV2Card17GetHDMIInputRangeER13NTV2HDMIRange11NTV2Channel
libajantv2.so.17.0.1.0:_ZN9CNTV2Card17GetIsoConvertModeER18NTV2IsoConvertMode
libajantv2.so.17.0.1.0:_ZN9CNTV2Card17GetLTCInputEnableERb
libajantv2.so.17.0.1.0:_ZN9CNTV2Card17GetPCIAccessFrameE11NTV2ChannelRj
libajantv2.so.17.0.1.0:_ZN9CNTV2Card17GetPCIFPGAVersionEv
libajantv2.so.17.0.1.0:_ZN9CNTV2Card17GetSDI1OutHTimingEPj
libajantv2.so.17.0.1.0:_ZN9CNTV2Card17GetSDI2OutHTimingEPj
libajantv2.so.17.0.1.0:_ZN9CNTV2Card17GetSDIOut3GEnableE11NTV2ChannelRb
libajantv2.so.17.0.1.0:_ZN9CNTV2Card17GetSDIOut6GEnableE11NTV2ChannelRb
libajantv2.so.17.0.1.0:_ZN9CNTV2Card17GetSDIUnlockCountE11NTV2Channel
libajantv2.so.17.0.1.0:_ZN9CNTV2Card17GetTsiFrameEnableERb11NTV2Channel
libajantv2.so.17.0.1.0:_ZN9CNTV2Card17GetTsiMuxSyncFailERb11NTV2Channel
libajantv2.so.17.0.1.0:_ZN9CNTV2Card17HevcGetDeviceInfoEP14HevcDeviceInfo
libajantv2.so.17.0.1.0:_ZN9CNTV2Card17HevcVideoTransferEP18HevcDeviceTransfer
libajantv2.so.17.0.1.0:_ZN9CNTV2Card17HevcWriteRegisterEjjjj
libajantv2.so.17.0.1.0:_ZN9CNTV2Card17LoadDynamicDeviceE12NTV2DeviceID
libajantv2.so.17.0.1.0:_ZN9CNTV2Card17ReadSDIStatisticsER19NTV2SDIInStatistics
libajantv2.so.17.0.1.0:_ZN9CNTV2Card17RemoveConnectionsERKSt3mapI21NTV2InputCrosspointID22NTV2OutputCrosspointIDSt4lessIS1_ESaISt4pairIKS1_S2_EEE
libajantv2.so.17.0.1.0:_ZN9CNTV2Card17SetAudio20BitModeE15NTV2AudioSystemb
libajantv2.so.17.0.1.0:_ZN9CNTV2Card17SetConversionModeE18NTV2ConversionMode
libajantv2.so.17.0.1.0:_ZN9CNTV2Card17SetEnableVANCDataEbb11NTV2Channel
libajantv2.so.17.0.1.0:_ZN9CNTV2Card17SetEnableVANCDataEbb12NTV2Standard17NTV2FrameGeometry11NTV2Channel
libajantv2.so.17.0.1.0:_ZN9CNTV2Card17SetHDMIInBitDepthE16NTV2HDMIBitDepth11NTV2Channel
libajantv2.so.17.0.1.0:_ZN9CNTV2Card17SetHDMIInputRangeE13NTV2HDMIRange11NTV2Channel
libajantv2.so.17.0.1.0:_ZN9CNTV2Card17SetHDMIV2TxBypassEb
libajantv2.so.17.0.1.0:_ZN9CNTV2Card17SetIsoConvertModeE18NTV2IsoConvertMode
libajantv2.so.17.0.1.0:_ZN9CNTV2Card17SetLTCInputEnableEb
libajantv2.so.17.0.1.0:_ZN9CNTV2Card17SetPCIAccessFrameE11NTV2Channeljb
libajantv2.so.17.0.1.0:_ZN9CNTV2Card17SetSDI1OutHTimingEj
libajantv2.so.17.0.1.0:_ZN9CNTV2Card17SetSDI2OutHTimingEj
libajantv2.so.17.0.1.0:_ZN9CNTV2Card17SetSDIOut3GEnableE11NTV2Channelb
libajantv2.so.17.0.1.0:_ZN9CNTV2Card17SetSDIOut6GEnableE11NTV2Channelb
libajantv2.so.17.0.1.0:_ZN9CNTV2Card17SetTsiFrameEnableEb11NTV2Channel
libajantv2.so.17.0.1.0:_ZN9CNTV2Card17StreamBufferQueueE11NTV2Channel10NTV2BuffermR16NTV2StreamBuffer
libajantv2.so.17.0.1.0:_ZN9CNTV2Card17StreamChannelStopE11NTV2ChannelR17NTV2StreamChannel
libajantv2.so.17.0.1.0:_ZN9CNTV2Card17StreamChannelWaitE11NTV2ChannelR17NTV2StreamChannel
libajantv2.so.17.0.1.0:_ZN9CNTV2Card17SupportsP2PTargetEv
libajantv2.so.17.0.1.0:_ZN9CNTV2Card18AcquireMailBoxLockEv
libajantv2.so.17.0.1.0:_ZN9CNTV2Card18AncInsertIsEnabledEtRb
libajantv2.so.17.0.1.0:_ZN9CNTV2Card18AncInsertSetEnableEtb
libajantv2.so.17.0.1.0:_ZN9CNTV2Card18AutoCirculateFlushE11NTV2Channelb
libajantv2.so.17.0.1.0:_ZN9CNTV2Card18AutoCirculatePauseE11NTV2Channelt
libajantv2.so.17.0.1.0:_ZN9CNTV2Card18AutoCirculateStartE11NTV2Channelm
libajantv2.so.17.0.1.0:_ZN9CNTV2Card18DMABufferUnlockAllEv
libajantv2.so.17.0.1.0:_ZN9CNTV2Card18DeviceCanDoDSKModeE11NTV2DSKMode
libajantv2.so.17.0.1.0:_ZN9CNTV2Card18DisableRP188BypassE11NTV2Channel
libajantv2.so.17.0.1.0:_ZN9CNTV2Card18Enable4KPSFOutModeEb
libajantv2.so.17.0.1.0:_ZN9CNTV2Card18GenerateGammaTableE11NTV2LutTypeiPd
libajantv2.so.17.0.1.0:_ZN9CNTV2Card18GenerateGammaTableE11NTV2LutTypeiRSt6vectorIdSaIdEE15NTV2LutBitDepth
libajantv2.so.17.0.1.0:_ZN9CNTV2Card18GenerateGammaTableE11NTV2LutTypeiRSt6vectorItSaItEE15NTV2LutBitDepth
libajantv2.so.17.0.1.0:_ZN9CNTV2Card18Get4kSquaresEnableERb11NTV2Channel
libajantv2.so.17.0.1.0:_ZN9CNTV2Card18Get64BitAutodetectEPj
libajantv2.so.17.0.1.0:_ZN9CNTV2Card18GetAESOutputSourceE23NTV2Audio4ChannelSelectR15NTV2AudioSystemRS0_
libajantv2.so.17.0.1.0:_ZN9CNTV2Card18GetAudioBufferSizeER19NTV2AudioBufferSize15NTV2AudioSystem
libajantv2.so.17.0.1.0:_ZN9CNTV2Card18GetAudioInputDelayE15NTV2AudioSystemRj
libajantv2.so.17.0.1.0:_ZN9CNTV2Card18GetAudioPCMControlE15NTV2AudioSystem20NTV2AudioChannelPairRb
libajantv2.so.17.0.1.0:_ZN9CNTV2Card18GetAudioPCMControlE15NTV2AudioSystemRSt3setI20NTV2AudioChannelPairSt4lessIS2_ESaIS2_EE
libajantv2.so.17.0.1.0:_ZN9CNTV2Card18GetAudioPCMControlE15NTV2AudioSystemRb
libajantv2.so.17.0.1.0:_ZN9CNTV2Card18GetAudioReadOffsetERj15NTV2AudioSystem
libajantv2.so.17.0.1.0:_ZN9CNTV2Card18GetConnectedInputsE22NTV2OutputCrosspointIDRSt3setI21NTV2InputCrosspointIDSt4lessIS2_ESaIS2_EE
libajantv2.so.17.0.1.0:_ZN9CNTV2Card18GetConnectedOutputE21NTV2InputCrosspointIDR22NTV2OutputCrosspointID
libajantv2.so.17.0.1.0:_ZN9CNTV2Card18GetConverterInRateER13NTV2FrameRate
libajantv2.so.17.0.1.0:_ZN9CNTV2Card18GetDeinterlaceModeERj
libajantv2.so.17.0.1.0:_ZN9CNTV2Card18GetDeviceFrameInfoEt11NTV2ChannelRjRbS2_S2_S2_S2_RmS3_
libajantv2.so.17.0.1.0:_ZN9CNTV2Card18GetDeviceFrameInfoEt11NTV2ChannelRmS1_
libajantv2.so.17.0.1.0:_ZN9CNTV2Card18GetDownConvertModeER19NTV2DownConvertMode
libajantv2.so.17.0.1.0:_ZN9CNTV2Card18GetEnableConverterERb
libajantv2.so.17.0.1.0:_ZN9CNTV2Card18GetEnabledChannelsERSt3setI11NTV2ChannelSt4lessIS1_ESaIS1_EE
libajantv2.so.17.0.1.0:_ZN9CNTV2Card18GetFrameBufferSizeE11NTV2ChannelR13NTV2Framesize
libajantv2.so.17.0.1.0:_ZN9CNTV2Card18GetHDMIInputStatusERj11NTV2Channelb
libajantv2.so.17.0.1.0:_ZN9CNTV2Card18GetHDMIOutBitDepthER16NTV2HDMIBitDepth
libajantv2.so.17.0.1.0:_ZN9CNTV2Card18GetHDMIOutProtocolER16NTV2HDMIProtocol
libajantv2.so.17.0.1.0:_ZN9CNTV2Card18GetHDMIOutVideoFPSER13NTV2FrameRate
libajantv2.so.17.0.1.0:_ZN9CNTV2Card18GetLHIVideoDACModeER16NTV2VideoDACMode
libajantv2.so.17.0.1.0:_ZN9CNTV2Card18GetLHIVideoDACModeER19NTV2LHIVideoDACMode
libajantv2.so.17.0.1.0:_ZN9CNTV2Card18GetLTCInputPresentERbt
libajantv2.so.17.0.1.0:_ZN9CNTV2Card18GetLUTV2OutputBankE11NTV2ChannelRj
libajantv2.so.17.0.1.0:_ZN9CNTV2Card18GetMixerMatteColorEtR15YCbCr10BitPixel
libajantv2.so.17.0.1.0:_ZN9CNTV2Card18GetMixerSyncStatusEtRb
libajantv2.so.17.0.1.0:_ZN9CNTV2Card18GetMultiFormatModeERb
libajantv2.so.17.0.1.0:_ZN9CNTV2Card18GetNTV2VideoFormatE13NTV2FrameRate12NTV2Standardbhbb
libajantv2.so.17.0.1.0:_ZN9CNTV2Card18GetNTV2VideoFormatE13NTV2FrameRatehbbb
libajantv2.so.17.0.1.0:_ZN9CNTV2Card18GetNominalMinMaxHVERiS0_S0_S0_S0_S0_
libajantv2.so.17.0.1.0:_ZN9CNTV2Card18GetQuadFrameEnableERb11NTV2Channel
libajantv2.so.17.0.1.0:_ZN9CNTV2Card18GetSDIOut12GEnableE11NTV2ChannelRb
libajantv2.so.17.0.1.0:_ZN9CNTV2Card18GetSDIOut3GbEnableE11NTV2ChannelRb
libajantv2.so.17.0.1.0:_ZN9CNTV2Card18GetSerialNumberLowEv
libajantv2.so.17.0.1.0:_ZN9CNTV2Card18GetVPIDColorimetryER19NTV2VPIDColorimetry11NTV2Channel
libajantv2.so.17.0.1.0:_ZN9CNTV2Card18Has12BitLUTSupportEv
libajantv2.so.17.0.1.0:_ZN9CNTV2Card18IsXilinxProgrammedEv
libajantv2.so.17.0.1.0:_ZN9CNTV2Card18Load12BitLUTTablesERKSt6vectorIdSaIdEES4_S4_
libajantv2.so.17.0.1.0:_ZN9CNTV2Card18Read12BitLUTTablesERSt6vectorItSaItEES3_S3_
libajantv2.so.17.0.1.0:_ZN9CNTV2Card18ReadAnalogLTCInputEtR10NTV2_RP188
libajantv2.so.17.0.1.0:_ZN9CNTV2Card18ReadAnalogLTCInputEtR12RP188_STRUCT
libajantv2.so.17.0.1.0:_ZN9CNTV2Card18ReleaseMailBoxLockEv
libajantv2.so.17.0.1.0:_ZN9CNTV2Card18Set4kSquaresEnableEb11NTV2Channel
libajantv2.so.17.0.1.0:_ZN9CNTV2Card18SetAESOutputSourceE23NTV2Audio4ChannelSelect15NTV2AudioSystemS0_
libajantv2.so.17.0.1.0:_ZN9CNTV2Card18SetAudioBufferSizeE19NTV2AudioBufferSize15NTV2AudioSystem
libajantv2.so.17.0.1.0:_ZN9CNTV2Card18SetAudioBufferSizeE19NTV2AudioBufferSizeRKSt3setI15NTV2AudioSystemSt4lessIS2_ESaIS2_EE
libajantv2.so.17.0.1.0:_ZN9CNTV2Card18SetAudioInputDelayE15NTV2AudioSystemj
libajantv2.so.17.0.1.0:_ZN9CNTV2Card18SetAudioPCMControlE15NTV2AudioSystem20NTV2AudioChannelPairb
libajantv2.so.17.0.1.0:_ZN9CNTV2Card18SetAudioPCMControlE15NTV2AudioSystemRKSt3setI20NTV2AudioChannelPairSt4lessIS2_ESaIS2_EE
libajantv2.so.17.0.1.0:_ZN9CNTV2Card18SetAudioPCMControlE15NTV2AudioSystemb
libajantv2.so.17.0.1.0:_ZN9CNTV2Card18SetConverterInRateE13NTV2FrameRate
libajantv2.so.17.0.1.0:_ZN9CNTV2Card18SetDeinterlaceModeEj
libajantv2.so.17.0.1.0:_ZN9CNTV2Card18SetDownConvertModeE19NTV2DownConvertMode
libajantv2.so.17.0.1.0:_ZN9CNTV2Card18SetEnableConverterEb
libajantv2.so.17.0.1.0:_ZN9CNTV2Card18SetFrameBufferSizeE11NTV2Channel13NTV2Framesize
libajantv2.so.17.0.1.0:_ZN9CNTV2Card18SetFrameBufferSizeE13NTV2Framesize
libajantv2.so.17.0.1.0:_ZN9CNTV2Card18SetHDMIOutBitDepthE16NTV2HDMIBitDepth
libajantv2.so.17.0.1.0:_ZN9CNTV2Card18SetHDMIOutProtocolE16NTV2HDMIProtocol
libajantv2.so.17.0.1.0:_ZN9CNTV2Card18SetHDMIOutVideoFPSE13NTV2FrameRate
libajantv2.so.17.0.1.0:_ZN9CNTV2Card18SetLHIVideoDACModeE16NTV2VideoDACMode
libajantv2.so.17.0.1.0:_ZN9CNTV2Card18SetLHIVideoDACModeE19NTV2LHIVideoDACMode
libajantv2.so.17.0.1.0:_ZN9CNTV2Card18SetLUTV2OutputBankE11NTV2Channelj
libajantv2.so.17.0.1.0:_ZN9CNTV2Card18SetMixerMatteColorEt15YCbCr10BitPixel
libajantv2.so.17.0.1.0:_ZN9CNTV2Card18SetMultiFormatModeEb
libajantv2.so.17.0.1.0:_ZN9CNTV2Card18SetQuadFrameEnableEb11NTV2Channel
libajantv2.so.17.0.1.0:_ZN9CNTV2Card18SetSDIOut12GEnableE11NTV2Channelb
libajantv2.so.17.0.1.0:_ZN9CNTV2Card18SetSDIOut3GbEnableE11NTV2Channelb
libajantv2.so.17.0.1.0:_ZN9CNTV2Card18SetVPIDColorimetryE19NTV2VPIDColorimetry11NTV2Channel
libajantv2.so.17.0.1.0:_ZN9CNTV2Card18StreamBufferStatusE11NTV2ChannelmR16NTV2StreamBuffer
libajantv2.so.17.0.1.0:_ZN9CNTV2Card18StreamChannelFlushE11NTV2ChannelR17NTV2StreamChannel
libajantv2.so.17.0.1.0:_ZN9CNTV2Card18StreamChannelStartE11NTV2ChannelR17NTV2StreamChannel
libajantv2.so.17.0.1.0:_ZN9CNTV2Card19AddDynamicDirectoryERKNSt7__cxx1112basic_stringIcSt11char_traitsIcESaIcEEE
libajantv2.so.17.0.1.0:_ZN9CNTV2Card19AncExtractIsEnabledEtRb
libajantv2.so.17.0.1.0:_ZN9CNTV2Card19AncExtractSetEnableEtb
libajantv2.so.17.0.1.0:_ZN9CNTV2Card19AutoCirculateResumeE11NTV2Channelb
libajantv2.so.17.0.1.0:_ZN9CNTV2Card19DmaP2PTransferFrameE13NTV2DMAEnginejjjjjjP24AUTOCIRCULATE_P2P_STRUCT
libajantv2.so.17.0.1.0:_ZN9CNTV2Card19Enable4KDCPSFInModeEb
libajantv2.so.17.0.1.0:_ZN9CNTV2Card19GetAnalogOutHTimingERj
libajantv2.so.17.0.1.0:_ZN9CNTV2Card19GetAudioAnalogLevelER14NTV2AudioLevel15NTV2AudioSystem
libajantv2.so.17.0.1.0:_ZN9CNTV2Card19GetAudioOutputDelayE15NTV2AudioSystemRj
libajantv2.so.17.0.1.0:_ZN9CNTV2Card19GetAudioOutputPauseE15NTV2AudioSystemRb
libajantv2.so.17.0.1.0:_ZN9CNTV2Card19GetAudioWrapAddressERj15NTV2AudioSystem
libajantv2.so.17.0.1.0:_ZN9CNTV2Card19GetBreakoutHardwareEv
libajantv2.so.17.0.1.0:_ZN9CNTV2Card19GetColorSpaceMethodE11NTV2Channel
libajantv2.so.17.0.1.0:_ZN9CNTV2Card19GetColorSpaceMethodER20NTV2ColorSpaceMethod11NTV2Channel
libajantv2.so.17.0.1.0:_ZN9CNTV2Card19GetConverterOutRateER13NTV2FrameRate
libajantv2.so.17.0.1.0:_ZN9CNTV2Card19GetDisabledChannelsERSt3setI11NTV2ChannelSt4lessIS1_ESaIS1_EE
libajantv2.so.17.0.1.0:_ZN9CNTV2Card19GetDynamicDeviceIDsEv
libajantv2.so.17.0.1.0:_ZN9CNTV2Card19GetEncodedAudioModeER20NTV2EncodedAudioMode15NTV2AudioSystem
libajantv2.so.17.0.1.0:_ZN9CNTV2Card19GetHDMIInColorSpaceER18NTV2HDMIColorSpace11NTV2Channel
libajantv2.so.17.0.1.0:_ZN9CNTV2Card19GetHDMIInVideoRangeER13NTV2HDMIRange11NTV2Channel
libajantv2.so.17.0.1.0:_ZN9CNTV2Card19GetHDMIOut3DPresentERb
libajantv2.so.17.0.1.0:_ZN9CNTV2Card19GetHDMIOutAudioRateER13NTV2AudioRate
libajantv2.so.17.0.1.0:_ZN9CNTV2Card19GetHDMIOutPrefer420ERb
libajantv2.so.17.0.1.0:_ZN9CNTV2Card19GetInputVideoFormatE15NTV2InputSourceb
libajantv2.so.17.0.1.0:_ZN9CNTV2Card19GetInputVideoSelectER20NTV2InputVideoSelect
libajantv2.so.17.0.1.0:_ZN9CNTV2Card19GetLUTControlSelectER20NTV2LUTControlSelect
libajantv2.so.17.0.1.0:_ZN9CNTV2Card19GetMixerCoefficientEtRj
libajantv2.so.17.0.1.0:_ZN9CNTV2Card19GetSDIInputGeometryE11NTV2Channel
libajantv2.so.17.0.1.0:_ZN9CNTV2Card19GetSDIRelayPositionER14NTV2RelayStatet
libajantv2.so.17.0.1.0:_ZN9CNTV2Card19GetSerialNumberHighEv
libajantv2.so.17.0.1.0:_ZN9CNTV2Card19GetSuspendHostAudioERb
libajantv2.so.17.0.1.0:_ZN9CNTV2Card19IsAudioInputRunningE15NTV2AudioSystemRb
libajantv2.so.17.0.1.0:_ZN9CNTV2Card19IsBufferSizeSetBySWEv
libajantv2.so.17.0.1.0:_ZN9CNTV2Card19IsMultiFormatActiveEv
libajantv2.so.17.0.1.0:_ZN9CNTV2Card19ReadSDHueAdjustmentERj
libajantv2.so.17.0.1.0:_ZN9CNTV2Card19SerialNum64ToStringB5cxx11Em
libajantv2.so.17.0.1.0:_ZN9CNTV2Card19SetAnalogOutHTimingEj
libajantv2.so.17.0.1.0:_ZN9CNTV2Card19SetAudioAnalogLevelE14NTV2AudioLevel15NTV2AudioSystem
libajantv2.so.17.0.1.0:_ZN9CNTV2Card19SetAudioOutputDelayE15NTV2AudioSystemj
libajantv2.so.17.0.1.0:_ZN9CNTV2Card19SetAudioOutputPauseE15NTV2AudioSystemb
libajantv2.so.17.0.1.0:_ZN9CNTV2Card19SetColorSpaceMethodE20NTV2ColorSpaceMethod11NTV2Channel
libajantv2.so.17.0.1.0:_ZN9CNTV2Card19SetConverterOutRateE13NTV2FrameRate
libajantv2.so.17.0.1.0:_ZN9CNTV2Card19SetEncodedAudioModeE20NTV2EncodedAudioMode15NTV2AudioSystem
libajantv2.so.17.0.1.0:_ZN9CNTV2Card19SetHDMIInColorSpaceE18NTV2HDMIColorSpace11NTV2Channel
libajantv2.so.17.0.1.0:_ZN9CNTV2Card19SetHDMIOut3DPresentEb
libajantv2.so.17.0.1.0:_ZN9CNTV2Card19SetHDMIOutAudioRateE13NTV2AudioRate
libajantv2.so.17.0.1.0:_ZN9CNTV2Card19SetHDMIOutPrefer420Eb
libajantv2.so.17.0.1.0:_ZN9CNTV2Card19SetInputVideoSelectE20NTV2InputVideoSelect
libajantv2.so.17.0.1.0:_ZN9CNTV2Card19SetLUTControlSelectE20NTV2LUTControlSelect
libajantv2.so.17.0.1.0:_ZN9CNTV2Card19SetMixerCoefficientEtj
libajantv2.so.17.0.1.0:_ZN9CNTV2Card19SetSuspendHostAudioEb
libajantv2.so.17.0.1.0:_ZN9CNTV2Card19StreamBufferReleaseE11NTV2ChannelR16NTV2StreamBuffer
libajantv2.so.17.0.1.0:_ZN9CNTV2Card19StreamChannelStatusE11NTV2ChannelR17NTV2StreamChannel
libajantv2.so.17.0.1.0:_ZN9CNTV2Card19SupportsP2PTransferEv
libajantv2.so.17.0.1.0:_ZN9CNTV2Card19WaitForInputFieldIDE11NTV2FieldID11NTV2Channel
libajantv2.so.17.0.1.0:_ZN9CNTV2Card19Write12BitLUTTablesERKSt6vectorItSaItEES4_S4_
libajantv2.so.17.0.1.0:_ZN9CNTV2Card20AncInsertGetReadInfoEtRmS0_
libajantv2.so.17.0.1.0:_ZN9CNTV2Card20AncInsertSetIPParamsEttjj
libajantv2.so.17.0.1.0:_ZN9CNTV2Card20AutoCirculatePreRollE11NTV2Channelj
libajantv2.so.17.0.1.0:_ZN9CNTV2Card20CanLoadDynamicDeviceE12NTV2DeviceID
libajantv2.so.17.0.1.0:_ZN9CNTV2Card20Download12BitLUTToHWERKSt6vectorIdSaIdEES4_S4_11NTV2Channeli
libajantv2.so.17.0.1.0:_ZN9CNTV2Card20Download12BitLUTToHWERKSt6vectorItSaItEES4_S4_11NTV2Channeli
libajantv2.so.17.0.1.0:_ZN9CNTV2Card20Enable4KDCYCC444ModeEb
libajantv2.so.17.0.1.0:_ZN9CNTV2Card20EnableInputInterruptE11NTV2Channel
libajantv2.so.17.0.1.0:_ZN9CNTV2Card20EnableInputInterruptERKSt3setI11NTV2ChannelSt4lessIS1_ESaIS1_EE
libajantv2.so.17.0.1.0:_ZN9CNTV2Card20GetAudioMemoryOffsetEjRj15NTV2AudioSystemb
libajantv2.so.17.0.1.0:_ZN9CNTV2Card20GetBitfileInfoStringB5cxx11ERK19BITFILE_INFO_STRUCT
libajantv2.so.17.0.1.0:_ZN9CNTV2Card20GetConverterPulldownERj
libajantv2.so.17.0.1.0:_ZN9CNTV2Card20GetDynamicDeviceListEv
libajantv2.so.17.0.1.0:_ZN9CNTV2Card20GetEnable4KDCRGBModeERb
libajantv2.so.17.0.1.0:_ZN9CNTV2Card20GetFPGAVersionStringB5cxx11E14NTV2XilinxFPGA
libajantv2.so.17.0.1.0:_ZN9CNTV2Card20GetFrameBufferFormatE11NTV2ChannelR21NTV2FrameBufferFormat
libajantv2.so.17.0.1.0:_ZN9CNTV2Card20GetHDMIInColorimetryER19NTV2HDMIColorimetry11NTV2Channel
libajantv2.so.17.0.1.0:_ZN9CNTV2Card20GetHDMIInDolbyVisionERb11NTV2Channel
libajantv2.so.17.0.1.0:_ZN9CNTV2Card20GetHDMIOutColorSpaceER18NTV2HDMIColorSpace
libajantv2.so.17.0.1.0:_ZN9CNTV2Card20GetHDMIOutLevelBModeERb
libajantv2.so.17.0.1.0:_ZN9CNTV2Card20GetNumberActiveLinesERj
libajantv2.so.17.0.1.0:_ZN9CNTV2Card20GetRP188BypassSourceE11NTV2ChannelRt
libajantv2.so.17.0.1.0:_ZN9CNTV2Card20GetRP188SourceFilterE11NTV2ChannelRt
libajantv2.so.17.0.1.0:_ZN9CNTV2Card20GetRegisterWriteModeER21NTV2RegisterWriteMode11NTV2Channel
libajantv2.so.17.0.1.0:_ZN9CNTV2Card20GetRoutingForChannelE11NTV2ChannelR17CNTV2SignalRouter
libajantv2.so.17.0.1.0:_ZN9CNTV2Card20GetSDIInput3GPresentERb11NTV2Channel
libajantv2.so.17.0.1.0:_ZN9CNTV2Card20GetSDIInput6GPresentERb11NTV2Channel
libajantv2.so.17.0.1.0:_ZN9CNTV2Card20GetSDIOutputStandardEtR12NTV2Standard
libajantv2.so.17.0.1.0:_ZN9CNTV2Card20GetSDITransmitEnableE11NTV2ChannelRb
libajantv2.so.17.0.1.0:_ZN9CNTV2Card20GetSDIWatchdogEnableERbt
libajantv2.so.17.0.1.0:_ZN9CNTV2Card20GetSDIWatchdogStatusER14NTV2RelayState
libajantv2.so.17.0.1.0:_ZN9CNTV2Card20HasMultiRasterWidgetEv
libajantv2.so.17.0.1.0:_ZN9CNTV2Card20IsAudioOutputRunningE15NTV2AudioSystemRb
libajantv2.so.17.0.1.0:_ZN9CNTV2Card20IsRP188BypassEnabledE11NTV2ChannelRb
libajantv2.so.17.0.1.0:_ZN9CNTV2Card20SetConverterPulldownEj
libajantv2.so.17.0.1.0:_ZN9CNTV2Card20SetFrameBufferFormatE11NTV2Channel21NTV2FrameBufferFormatb31NTV2VPIDTransferCharacteristics19NTV2VPIDColorimetry17NTV2VPIDLuminance
libajantv2.so.17.0.1.0:_ZN9CNTV2Card20SetFrameBufferFormatERKSt3setI11NTV2ChannelSt4lessIS1_ESaIS1_EE21NTV2FrameBufferFormatb31NTV2VPIDTransferCharacteristics19NTV2VPIDColorimetry17NTV2VPIDLuminance
libajantv2.so.17.0.1.0:_ZN9CNTV2Card20SetHDMIOutColorSpaceE18NTV2HDMIColorSpace
libajantv2.so.17.0.1.0:_ZN9CNTV2Card20SetHDMIOutLevelBModeEb
libajantv2.so.17.0.1.0:_ZN9CNTV2Card20SetRP188BypassSourceE11NTV2Channelt
libajantv2.so.17.0.1.0:_ZN9CNTV2Card20SetRP188SourceFilterE11NTV2Channelt
libajantv2.so.17.0.1.0:_ZN9CNTV2Card20SetRegisterWriteModeE21NTV2RegisterWriteMode11NTV2Channel
libajantv2.so.17.0.1.0:_ZN9CNTV2Card20SetSDIOutputStandardERKSt3setI11NTV2ChannelSt4lessIS1_ESaIS1_EE12NTV2Standard
libajantv2.so.17.0.1.0:_ZN9CNTV2Card20SetSDIOutputStandardEt12NTV2Standard
libajantv2.so.17.0.1.0:_ZN9CNTV2Card20SetSDITransmitEnableE11NTV2Channelb
libajantv2.so.17.0.1.0:_ZN9CNTV2Card20SetSDITransmitEnableERKSt3setI11NTV2ChannelSt4lessIS1_ESaIS1_EEb
libajantv2.so.17.0.1.0:_ZN9CNTV2Card20SetSDIWatchdogEnableEbt
libajantv2.so.17.0.1.0:_ZN9CNTV2Card20StreamChannelReleaseE11NTV2Channel
libajantv2.so.17.0.1.0:_ZN9CNTV2Card20WaitForOutputFieldIDE11NTV2FieldID11NTV2Channel
libajantv2.so.17.0.1.0:_ZN9CNTV2Card20WriteAnalogLTCOutputEtRK10NTV2_RP188
libajantv2.so.17.0.1.0:_ZN9CNTV2Card20WriteAnalogLTCOutputEtRK12RP188_STRUCT
libajantv2.so.17.0.1.0:_ZN9CNTV2Card20WriteSDHueAdjustmentEj
libajantv2.so.17.0.1.0:_ZN9CNTV2Card21AncSetFrameBufferSizeEjj
libajantv2.so.17.0.1.0:_ZN9CNTV2Card21AutoCirculateTransferE11NTV2ChannelR22AUTOCIRCULATE_TRANSFER
libajantv2.so.17.0.1.0:_ZN9CNTV2Card21DeviceCanDoAudioMixerEv
libajantv2.so.17.0.1.0:_ZN9CNTV2Card21DisableInputInterruptE11NTV2Channel
libajantv2.so.17.0.1.0:_ZN9CNTV2Card21DisableInputInterruptERKSt3setI11NTV2ChannelSt4lessIS1_ESaIS1_EE
libajantv2.so.17.0.1.0:_ZN9CNTV2Card21EnableOutputInterruptE11NTV2Channel
libajantv2.so.17.0.1.0:_ZN9CNTV2Card21FindUnallocatedFramesEtRiS0_11NTV2Channel
libajantv2.so.17.0.1.0:_ZN9CNTV2Card21GetAlphaFromInput2BitERj
libajantv2.so.17.0.1.0:_ZN9CNTV2Card21GetAnalogInputADCModeER18NTV2LSVideoADCMode
libajantv2.so.17.0.1.0:_ZN9CNTV2Card21GetAudioCaptureEnableE15NTV2AudioSystemRb
libajantv2.so.17.0.1.0:_ZN9CNTV2Card21GetEmbeddedAudioClockER22NTV2EmbeddedAudioClock15NTV2AudioSystem
libajantv2.so.17.0.1.0:_ZN9CNTV2Card21GetEmbeddedAudioInputER22NTV2EmbeddedAudioInput15NTV2AudioSystem
libajantv2.so.17.0.1.0:_ZN9CNTV2Card21GetEnable4KPSFOutModeERb
libajantv2.so.17.0.1.0:_ZN9CNTV2Card21GetEveryFrameServicesER22NTV2EveryFrameTaskMode
libajantv2.so.17.0.1.0:_ZN9CNTV2Card21GetFrameBufferQualityE11NTV2ChannelR22NTV2FrameBufferQuality
libajantv2.so.17.0.1.0:_ZN9CNTV2Card21GetHDMIHDRRedPrimaryXERt
libajantv2.so.17.0.1.0:_ZN9CNTV2Card21GetHDMIHDRRedPrimaryYERt
libajantv2.so.17.0.1.0:_ZN9CNTV2Card21GetHDMIHDRWhitePointXERt
libajantv2.so.17.0.1.0:_ZN9CNTV2Card21GetHDMIHDRWhitePointYERt
libajantv2.so.17.0.1.0:_ZN9CNTV2Card21GetHDMIInDynamicRangeER12HDRRegValues11NTV2Channel
libajantv2.so.17.0.1.0:_ZN9CNTV2Card21GetHDMIInDynamicRangeER14HDRFloatValues11NTV2Channel
libajantv2.so.17.0.1.0:_ZN9CNTV2Card21GetHDMIOutAudioFormatER15NTV2AudioFormat
libajantv2.so.17.0.1.0:_ZN9CNTV2Card21GetHDMIOutForceConfigERb
libajantv2.so.17.0.1.0:_ZN9CNTV2Card21GetMultiLinkAudioModeE15NTV2AudioSystemRb
libajantv2.so.17.0.1.0:_ZN9CNTV2Card21GetProgressivePictureERj
libajantv2.so.17.0.1.0:_ZN9CNTV2Card21GetSDIInput12GPresentERb11NTV2Channel
libajantv2.so.17.0.1.0:_ZN9CNTV2Card21GetSDIInput3GbPresentERb11NTV2Channel
libajantv2.so.17.0.1.0:_ZN9CNTV2Card21GetSDIWatchdogTimeoutERj
libajantv2.so.17.0.1.0:_ZN9CNTV2Card21GetSerialNumberStringERNSt7__cxx1112basic_stringIcSt11char_traitsIcESaIcEEE
libajantv2.so.17.0.1.0:_ZN9CNTV2Card21IsProgressiveStandardERb11NTV2Channel
libajantv2.so.17.0.1.0:_ZN9CNTV2Card21Set1DLUTTableLocationE11NTV2Channeljj
libajantv2.so.17.0.1.0:_ZN9CNTV2Card21Set3DLUTTableLocationEjj
libajantv2.so.17.0.1.0:_ZN9CNTV2Card21SetAlphaFromInput2BitEj
libajantv2.so.17.0.1.0:_ZN9CNTV2Card21SetAnalogInputADCModeE18NTV2LSVideoADCMode
libajantv2.so.17.0.1.0:_ZN9CNTV2Card21SetAudioCaptureEnableE15NTV2AudioSystemb
libajantv2.so.17.0.1.0:_ZN9CNTV2Card21SetEmbeddedAudioClockE22NTV2EmbeddedAudioClock15NTV2AudioSystem
libajantv2.so.17.0.1.0:_ZN9CNTV2Card21SetEmbeddedAudioInputE22NTV2EmbeddedAudioInput15NTV2AudioSystem
libajantv2.so.17.0.1.0:_ZN9CNTV2Card21SetEveryFrameServicesE22NTV2EveryFrameTaskMode
libajantv2.so.17.0.1.0:_ZN9CNTV2Card21SetFrameBufferQualityE11NTV2Channel22NTV2FrameBufferQuality
libajantv2.so.17.0.1.0:_ZN9CNTV2Card21SetHDMIHDRRedPrimaryXEt
libajantv2.so.17.0.1.0:_ZN9CNTV2Card21SetHDMIHDRRedPrimaryYEt
libajantv2.so.17.0.1.0:_ZN9CNTV2Card21SetHDMIHDRWhitePointXEt
libajantv2.so.17.0.1.0:_ZN9CNTV2Card21SetHDMIHDRWhitePointYEt
libajantv2.so.17.0.1.0:_ZN9CNTV2Card21SetHDMIOutAudioFormatE15NTV2AudioFormat
libajantv2.so.17.0.1.0:_ZN9CNTV2Card21SetHDMIOutForceConfigEb
libajantv2.so.17.0.1.0:_ZN9CNTV2Card21SetMultiLinkAudioModeE15NTV2AudioSystemb
libajantv2.so.17.0.1.0:_ZN9CNTV2Card21SetProgressivePictureEj
libajantv2.so.17.0.1.0:_ZN9CNTV2Card21SetSDIWatchdogTimeoutEj
libajantv2.so.17.0.1.0:_ZN9CNTV2Card22AncExtractGetWriteInfoEtRmS0_S0_S0_
libajantv2.so.17.0.1.0:_ZN9CNTV2Card22AncInsertSetComponentsEtbbbb
libajantv2.so.17.0.1.0:_ZN9CNTV2Card22AncInsertSetReadParamsEtjj11NTV2Channel13NTV2Framesize
libajantv2.so.17.0.1.0:_ZN9CNTV2Card22AutoCirculateGetStatusE11NTV2ChannelR20AUTOCIRCULATE_STATUS
libajantv2.so.17.0.1.0:_ZN9CNTV2Card22BankSelectReadRegisterERK11NTV2RegInfoRS0_
libajantv2.so.17.0.1.0:_ZN9CNTV2Card22DeviceCanDoInputSourceE15NTV2InputSource
libajantv2.so.17.0.1.0:_ZN9CNTV2Card22DeviceCanDoVideoFormatE16_NTV2VideoFormat
libajantv2.so.17.0.1.0:_ZN9CNTV2Card22DisableOutputInterruptE11NTV2Channel
libajantv2.so.17.0.1.0:_ZN9CNTV2Card22EnableBOBAnalogAudioInEb
libajantv2.so.17.0.1.0:_ZN9CNTV2Card22Get12BitLUTPlaneSelectER18NTV2LUTPlaneSelect
libajantv2.so.17.0.1.0:_ZN9CNTV2Card22GetAudioMixerInputGainE19NTV2AudioMixerInput21NTV2AudioMixerChannelRj
libajantv2.so.17.0.1.0:_ZN9CNTV2Card22GetColorCorrectionModeE11NTV2ChannelR23NTV2ColorCorrectionMode
libajantv2.so.17.0.1.0:_ZN9CNTV2Card22GetConverterInStandardER12NTV2Standard
libajantv2.so.17.0.1.0:_ZN9CNTV2Card22GetDefaultVideoOutModeERj
libajantv2.so.17.0.1.0:_ZN9CNTV2Card22GetDeviceVersionStringB5cxx11Ev
libajantv2.so.17.0.1.0:_ZN9CNTV2Card22GetDitherFor8BitInputsE11NTV2ChannelRj
libajantv2.so.17.0.1.0:_ZN9CNTV2Card22GetDriverVersionStringB5cxx11Ev
libajantv2.so.17.0.1.0:_ZN9CNTV2Card22GetDualLinkInputEnableERb
libajantv2.so.17.0.1.0:_ZN9CNTV2Card22GetEnable4KDCPSFInModeERb
libajantv2.so.17.0.1.0:_ZN9CNTV2Card22GetFramePulseReferenceER19NTV2ReferenceSource
libajantv2.so.17.0.1.0:_ZN9CNTV2Card22GetHDMIHDRBluePrimaryXERt
libajantv2.so.17.0.1.0:_ZN9CNTV2Card22GetHDMIHDRBluePrimaryYERt
libajantv2.so.17.0.1.0:_ZN9CNTV2Card22GetHDMIOutDecimateModeERb
libajantv2.so.17.0.1.0:_ZN9CNTV2Card22GetHeadphoneOutputGainERj
libajantv2.so.17.0.1.0:_ZN9CNTV2Card22GetLHIVideoDACStandardER12NTV2Standard
libajantv2.so.17.0.1.0:_ZN9CNTV2Card22GetLUTV2HostAccessBankER33NTV2ColorCorrectionHostAccessBank11NTV2Channel
libajantv2.so.17.0.1.0:_ZN9CNTV2Card22GetMixerBGInputControlEtR26NTV2MixerKeyerInputControl
libajantv2.so.17.0.1.0:_ZN9CNTV2Card22GetMixerBGMatteEnabledEtRb
libajantv2.so.17.0.1.0:_ZN9CNTV2Card22GetMixerFGInputControlEtR26NTV2MixerKeyerInputControl
libajantv2.so.17.0.1.0:_ZN9CNTV2Card22GetMixerFGMatteEnabledEtRb
libajantv2.so.17.0.1.0:_ZN9CNTV2Card22GetNumberAudioChannelsERj15NTV2AudioSystem
libajantv2.so.17.0.1.0:_ZN9CNTV2Card22GetPossibleConnectionsERSt8multimapI21NTV2InputCrosspointID22NTV2OutputCrosspointIDSt4lessIS1_ESaISt4pairIKS1_S2_EEE
libajantv2.so.17.0.1.0:_ZN9CNTV2Card22GetQuadQuadFrameEnableERb11NTV2Channel
libajantv2.so.17.0.1.0:_ZN9CNTV2Card22GetRegisterBaseAddressEjPPj
libajantv2.so.17.0.1.0:_ZN9CNTV2Card22GetRunningFirmwareDateERNSt7__cxx1112basic_stringIcSt11char_traitsIcESaIcEEES6_
libajantv2.so.17.0.1.0:_ZN9CNTV2Card22GetRunningFirmwareDateERtS0_S0_
libajantv2.so.17.0.1.0:_ZN9CNTV2Card22GetRunningFirmwareTimeERtS0_S0_
libajantv2.so.17.0.1.0:_ZN9CNTV2Card22GetSDIInputVideoFormatE11NTV2Channelb
libajantv2.so.17.0.1.0:_ZN9CNTV2Card22GetSDIOut2Kx1080EnableE11NTV2ChannelRb
libajantv2.so.17.0.1.0:_ZN9CNTV2Card22MixerHasRGBModeSupportEtRb
libajantv2.so.17.0.1.0:_ZN9CNTV2Card22Set12BitLUTPlaneSelectE18NTV2LUTPlaneSelect
libajantv2.so.17.0.1.0:_ZN9CNTV2Card22SetAudioMixerInputGainE19NTV2AudioMixerInput21NTV2AudioMixerChannelj
libajantv2.so.17.0.1.0:_ZN9CNTV2Card22SetColorCorrectionModeE11NTV2Channel23NTV2ColorCorrectionMode
libajantv2.so.17.0.1.0:_ZN9CNTV2Card22SetConverterInStandardE12NTV2Standard
libajantv2.so.17.0.1.0:_ZN9CNTV2Card22SetDefaultVideoOutModeEj
libajantv2.so.17.0.1.0:_ZN9CNTV2Card22SetDitherFor8BitInputsE11NTV2Channelj
libajantv2.so.17.0.1.0:_ZN9CNTV2Card22SetDualLinkInputEnableEb
libajantv2.so.17.0.1.0:_ZN9CNTV2Card22SetFramePulseReferenceE19NTV2ReferenceSource
libajantv2.so.17.0.1.0:_ZN9CNTV2Card22SetHDMIHDRBluePrimaryXEt
libajantv2.so.17.0.1.0:_ZN9CNTV2Card22SetHDMIHDRBluePrimaryYEt
libajantv2.so.17.0.1.0:_ZN9CNTV2Card22SetHDMIOutDecimateModeEb
libajantv2.so.17.0.1.0:_ZN9CNTV2Card22SetHeadphoneOutputGainEj
libajantv2.so.17.0.1.0:_ZN9CNTV2Card22SetLHIVideoDACStandardE12NTV2Standard
libajantv2.so.17.0.1.0:_ZN9CNTV2Card22SetLUTV2HostAccessBankE33NTV2ColorCorrectionHostAccessBank
libajantv2.so.17.0.1.0:_ZN9CNTV2Card22SetMixerBGInputControlEt26NTV2MixerKeyerInputControl
libajantv2.so.17.0.1.0:_ZN9CNTV2Card22SetMixerBGMatteEnabledEtb
libajantv2.so.17.0.1.0:_ZN9CNTV2Card22SetMixerFGInputControlEt26NTV2MixerKeyerInputControl
libajantv2.so.17.0.1.0:_ZN9CNTV2Card22SetMixerFGMatteEnabledEtb
libajantv2.so.17.0.1.0:_ZN9CNTV2Card22SetNumberAudioChannelsEj15NTV2AudioSystem
libajantv2.so.17.0.1.0:_ZN9CNTV2Card22SetNumberAudioChannelsEjRKSt3setI15NTV2AudioSystemSt4lessIS1_ESaIS1_EE
libajantv2.so.17.0.1.0:_ZN9CNTV2Card22SetQuadQuadFrameEnableEb11NTV2Channel
libajantv2.so.17.0.1.0:_ZN9CNTV2Card22SetSDIOut2Kx1080EnableE11NTV2Channelb
libajantv2.so.17.0.1.0:_ZN9CNTV2Card23AncExtractGetField1SizeEtRj
libajantv2.so.17.0.1.0:_ZN9CNTV2Card23AncExtractGetField2SizeEtRj
libajantv2.so.17.0.1.0:_ZN9CNTV2Card23AncExtractGetFilterDIDsEtRSt3setIhSt4lessIhESaIhEE
libajantv2.so.17.0.1.0:_ZN9CNTV2Card23AncExtractSetComponentsEtbbbb
libajantv2.so.17.0.1.0:_ZN9CNTV2Card23AncExtractSetFilterDIDsEtRKSt3setIhSt4lessIhESaIhEE
libajantv2.so.17.0.1.0:_ZN9CNTV2Card23BankSelectWriteRegisterERK11NTV2RegInfoS2_
libajantv2.so.17.0.1.0:_ZN9CNTV2Card23DeviceCanDoLTCEmbeddedNEt
libajantv2.so.17.0.1.0:_ZN9CNTV2Card23EnableHDMIOutCenterCropEb
libajantv2.so.17.0.1.0:_ZN9CNTV2Card23GetAudioMixerOutputGainERj
libajantv2.so.17.0.1.0:_ZN9CNTV2Card23GetAudioOutputEraseModeE15NTV2AudioSystemRb
libajantv2.so.17.0.1.0:_ZN9CNTV2Card23GetConverterOutStandardER12NTV2Standard
libajantv2.so.17.0.1.0:_ZN9CNTV2Card23GetDualLinkOutputEnableERb
libajantv2.so.17.0.1.0:_ZN9CNTV2Card23GetEnable4KDCYCC444ModeERb
libajantv2.so.17.0.1.0:_ZN9CNTV2Card23GetFBSizeAndCountFromHWEPjS0_
libajantv2.so.17.0.1.0:_ZN9CNTV2Card23GetHDMIHDRGreenPrimaryXERt
libajantv2.so.17.0.1.0:_ZN9CNTV2Card23GetHDMIHDRGreenPrimaryYERt
libajantv2.so.17.0.1.0:_ZN9CNTV2Card23GetHDMIInputVideoFormatE11NTV2Channel
libajantv2.so.17.0.1.0:_ZN9CNTV2Card23GetHDMIOutAudioChannelsER21NTV2HDMIAudioChannels
libajantv2.so.17.0.1.0:_ZN9CNTV2Card23GetHDMIOutVideoStandardER12NTV2Standard
libajantv2.so.17.0.1.0:_ZN9CNTV2Card23GetInstalledBitfileInfoERjRNSt7__cxx1112basic_stringIcSt11char_traitsIcESaIcEEES7_
libajantv2.so.17.0.1.0:_ZN9CNTV2Card23GetLHIHDMIOutColorSpaceER21NTV2LHIHDMIColorSpace
libajantv2.so.17.0.1.0:_ZN9CNTV2Card23GetLTCEmbeddedOutEnableERb
libajantv2.so.17.0.1.0:_ZN9CNTV2Card23GetPCIFPGAVersionStringB5cxx11Ev
libajantv2.so.17.0.1.0:_ZN9CNTV2Card23GetReferenceVideoFormatEv
libajantv2.so.17.0.1.0:_ZN9CNTV2Card23GetSDIOutputAudioSystemE11NTV2ChannelR15NTV2AudioSystem
libajantv2.so.17.0.1.0:_ZN9CNTV2Card23GetSecondaryVideoFormatER16_NTV2VideoFormat
libajantv2.so.17.0.1.0:_ZN9CNTV2Card23IsDynamicFirmwareLoadedEv
libajantv2.so.17.0.1.0:_ZN9CNTV2Card23IsFailSafeBitfileLoadedERb
libajantv2.so.17.0.1.0:_ZN9CNTV2Card23ReadFlashProgramControlERj
libajantv2.so.17.0.1.0:_ZN9CNTV2Card23ReadOutputTimingControlERjt
libajantv2.so.17.0.1.0:_ZN9CNTV2Card23S2110DeviceAncToBuffersE11NTV2ChannelR10NTV2BufferS2_
libajantv2.so.17.0.1.0:_ZN9CNTV2Card23SetAudioMixerOutputGainEj
libajantv2.so.17.0.1.0:_ZN9CNTV2Card23SetAudioOutputEraseModeE15NTV2AudioSystemRKb
libajantv2.so.17.0.1.0:_ZN9CNTV2Card23SetConverterOutStandardE12NTV2Standard
libajantv2.so.17.0.1.0:_ZN9CNTV2Card23SetDualLinkOutputEnableEb
libajantv2.so.17.0.1.0:_ZN9CNTV2Card23SetHDMIHDRGreenPrimaryXEt
libajantv2.so.17.0.1.0:_ZN9CNTV2Card23SetHDMIHDRGreenPrimaryYEt
libajantv2.so.17.0.1.0:_ZN9CNTV2Card23SetHDMIOutAudioChannelsE21NTV2HDMIAudioChannels
libajantv2.so.17.0.1.0:_ZN9CNTV2Card23SetHDMIOutVideoStandardE12NTV2Standard
libajantv2.so.17.0.1.0:_ZN9CNTV2Card23SetLHIHDMIOutColorSpaceE21NTV2LHIHDMIColorSpace
libajantv2.so.17.0.1.0:_ZN9CNTV2Card23SetLTCEmbeddedOutEnableEb
libajantv2.so.17.0.1.0:_ZN9CNTV2Card23SetSDIOutputAudioSystemE11NTV2Channel15NTV2AudioSystem
libajantv2.so.17.0.1.0:_ZN9CNTV2Card23SetSDIOutputAudioSystemERKSt3setI11NTV2ChannelSt4lessIS1_ESaIS1_EE15NTV2AudioSystemb
libajantv2.so.17.0.1.0:_ZN9CNTV2Card23SetSecondaryVideoFormatE16_NTV2VideoFormat
libajantv2.so.17.0.1.0:_ZN9CNTV2Card23StreamChannelInitializeE11NTV2Channel
libajantv2.so.17.0.1.0:_ZN9CNTV2Card24AncExtractGetDefaultDIDsEb
libajantv2.so.17.0.1.0:_ZN9CNTV2Card24AncExtractSetWriteParamsEtj11NTV2Channel13NTV2Framesize
libajantv2.so.17.0.1.0:_ZN9CNTV2Card24DeviceGetFrameBufferSizeE17NTV2FrameGeometry21NTV2FrameBufferFormat
libajantv2.so.17.0.1.0:_ZN9CNTV2Card24DeviceGetFrameBufferSizeEv
libajantv2.so.17.0.1.0:_ZN9CNTV2Card24EnableHDMIHDRDolbyVisionEb
libajantv2.so.17.0.1.0:_ZN9CNTV2Card24GetActiveFrameDimensionsE11NTV2Channel
libajantv2.so.17.0.1.0:_ZN9CNTV2Card24GetActiveFrameDimensionsER19NTV2FrameDimensions11NTV2Channel
libajantv2.so.17.0.1.0:_ZN9CNTV2Card24GetAudioMixerInputLevelsE19NTV2AudioMixerInputRKSt3setI20NTV2AudioChannelPairSt4lessIS2_ESaIS2_EERSt6vectorIjSaIjEE
libajantv2.so.17.0.1.0:_ZN9CNTV2Card24GetCurrentInterruptMasksER17NTV2InterruptMaskR18NTV2Interrupt2Mask
libajantv2.so.17.0.1.0:_ZN9CNTV2Card24GetHDMIInputStatusRegNumERj11NTV2Channelb
libajantv2.so.17.0.1.0:_ZN9CNTV2Card24GetQuadQuadSquaresEnableERb11NTV2Channel
libajantv2.so.17.0.1.0:_ZN9CNTV2Card24GetRunningFirmwareUserIDERj
libajantv2.so.17.0.1.0:_ZN9CNTV2Card24GetSDIInputIsProgressiveE11NTV2Channel
libajantv2.so.17.0.1.0:_ZN9CNTV2Card24GetSDIRelayManualControlER14NTV2RelayStatet
libajantv2.so.17.0.1.0:_ZN9CNTV2Card24GetSupportedVideoFormatsERSt3setI16_NTV2VideoFormatSt4lessIS1_ESaIS1_EE
libajantv2.so.17.0.1.0:_ZN9CNTV2Card24GetXena2FlashBaseAddressEPPj
libajantv2.so.17.0.1.0:_ZN9CNTV2Card24IsBreakoutBoardConnectedEv
libajantv2.so.17.0.1.0:_ZN9CNTV2Card24ReadHDCbOffsetAdjustmentERj
libajantv2.so.17.0.1.0:_ZN9CNTV2Card24ReadHDContrastAdjustmentERj
libajantv2.so.17.0.1.0:_ZN9CNTV2Card24ReadHDCrOffsetAdjustmentERj
libajantv2.so.17.0.1.0:_ZN9CNTV2Card24ReadProcAmpC1YAdjustmentERj
libajantv2.so.17.0.1.0:_ZN9CNTV2Card24ReadSDCbOffsetAdjustmentERj
libajantv2.so.17.0.1.0:_ZN9CNTV2Card24ReadSDContrastAdjustmentERj
libajantv2.so.17.0.1.0:_ZN9CNTV2Card24ReadSDCrOffsetAdjustmentERj
libajantv2.so.17.0.1.0:_ZN9CNTV2Card24SetQuadQuadSquaresEnableEb11NTV2Channel
libajantv2.so.17.0.1.0:_ZN9CNTV2Card24SetSDIRelayManualControlE14NTV2RelayStatet
libajantv2.so.17.0.1.0:_ZN9CNTV2Card24WriteOutputTimingControlEjt
libajantv2.so.17.0.1.0:_ZN9CNTV2Card25AutoCirculateInitForInputE11NTV2Channelt15NTV2AudioSystemjhtt
libajantv2.so.17.0.1.0:_ZN9CNTV2Card25DeviceCanDoConversionModeE18NTV2ConversionMode
libajantv2.so.17.0.1.0:_ZN9CNTV2Card25DeviceGetAudioFrameBufferE17NTV2FrameGeometry21NTV2FrameBufferFormat
libajantv2.so.17.0.1.0:_ZN9CNTV2Card25DeviceGetAudioFrameBufferEv
libajantv2.so.17.0.1.0:_ZN9CNTV2Card25EnableFramePulseReferenceEb
libajantv2.so.17.0.1.0:_ZN9CNTV2Card25EnableHDMIOutUserOverrideEb
libajantv2.so.17.0.1.0:_ZN9CNTV2Card25GetAnalogInputVideoFormatEv
libajantv2.so.17.0.1.0:_ZN9CNTV2Card25GetAncRegionOffsetAndSizeERjS0_23NTV2AncillaryDataRegion
libajantv2.so.17.0.1.0:_ZN9CNTV2Card25GetAudioMixerOutputLevelsERKSt3setI20NTV2AudioChannelPairSt4lessIS1_ESaIS1_EERSt6vectorIjSaIjEE
libajantv2.so.17.0.1.0:_ZN9CNTV2Card25GetAudioSystemInputSourceE15NTV2AudioSystemR15NTV2AudioSourceR22NTV2EmbeddedAudioInput
libajantv2.so.17.0.1.0:_ZN9CNTV2Card25GetColorSpaceMatrixSelectER24NTV2ColorSpaceMatrixType11NTV2Channel
libajantv2.so.17.0.1.0:_ZN9CNTV2Card25GetFrameBufferOrientationE11NTV2ChannelR31NTV2VideoFrameBufferOrientation
libajantv2.so.17.0.1.0:_ZN9CNTV2Card25GetHDMIInputAudioChannelsER21NTV2HDMIAudioChannels11NTV2Channel
libajantv2.so.17.0.1.0:_ZN9CNTV2Card25GetHDMIOutSampleStructureER23NTV2HDMISampleStructure
libajantv2.so.17.0.1.0:_ZN9CNTV2Card25IsAudioChannelPairPresentE15NTV2AudioSystem20NTV2AudioChannelPairRb
libajantv2.so.17.0.1.0:_ZN9CNTV2Card25ReadProcAmpC1CBAdjustmentERj
libajantv2.so.17.0.1.0:_ZN9CNTV2Card25ReadProcAmpC1CRAdjustmentERj
libajantv2.so.17.0.1.0:_ZN9CNTV2Card25ReadProcAmpC2CBAdjustmentERj
libajantv2.so.17.0.1.0:_ZN9CNTV2Card25ReadProcAmpC2CRAdjustmentERj
libajantv2.so.17.0.1.0:_ZN9CNTV2Card25S2110DeviceAncFromBuffersE11NTV2ChannelR10NTV2BufferS2_
libajantv2.so.17.0.1.0:_ZN9CNTV2Card25SetAudioSystemInputSourceE15NTV2AudioSystem15NTV2AudioSource22NTV2EmbeddedAudioInput
libajantv2.so.17.0.1.0:_ZN9CNTV2Card25SetColorSpaceMatrixSelectE24NTV2ColorSpaceMatrixType11NTV2Channel
libajantv2.so.17.0.1.0:_ZN9CNTV2Card25SetFrameBufferOrientationE11NTV2Channel31NTV2VideoFrameBufferOrientation
libajantv2.so.17.0.1.0:_ZN9CNTV2Card25SetHDMIOutSampleStructureE23NTV2HDMISampleStructure
libajantv2.so.17.0.1.0:_ZN9CNTV2Card25SetWarmBootFirmwareReloadEb
libajantv2.so.17.0.1.0:_ZN9CNTV2Card25WriteHDCbOffsetAdjustmentEj
libajantv2.so.17.0.1.0:_ZN9CNTV2Card25WriteHDContrastAdjustmentEj
libajantv2.so.17.0.1.0:_ZN9CNTV2Card25WriteHDCrOffsetAdjustmentEj
libajantv2.so.17.0.1.0:_ZN9CNTV2Card25WriteProcAmpC1YAdjustmentEj
libajantv2.so.17.0.1.0:_ZN9CNTV2Card25WriteSDCbOffsetAdjustmentEj
libajantv2.so.17.0.1.0:_ZN9CNTV2Card25WriteSDContrastAdjustmentEj
libajantv2.so.17.0.1.0:_ZN9CNTV2Card25WriteSDCrOffsetAdjustmentEj
libajantv2.so.17.0.1.0:_ZN9CNTV2Card26AncExtractGetBufferOverrunEtRbt
libajantv2.so.17.0.1.0:_ZN9CNTV2Card26AutoCirculateGetFrameStampE11NTV2ChanneljR11FRAME_STAMP
libajantv2.so.17.0.1.0:_ZN9CNTV2Card26AutoCirculateInitForOutputE11NTV2Channelt15NTV2AudioSystemjhtt
libajantv2.so.17.0.1.0:_ZN9CNTV2Card26DeviceAddressToFrameNumberEmRt11NTV2Channel
libajantv2.so.17.0.1.0:_ZN9CNTV2Card26DeviceGetAudioFrameBuffer2E17NTV2FrameGeometry21NTV2FrameBufferFormat
libajantv2.so.17.0.1.0:_ZN9CNTV2Card26DeviceGetAudioFrameBuffer2Ev
libajantv2.so.17.0.1.0:_ZN9CNTV2Card26GetAnalogLTCInClockChannelEtR11NTV2Channel
libajantv2.so.17.0.1.0:_ZN9CNTV2Card26GetColorSpaceRGBBlackRangeER18NTV2_CSC_RGB_Range11NTV2Channel
libajantv2.so.17.0.1.0:_ZN9CNTV2Card26GetDetectedAESChannelPairsERSt3setI20NTV2AudioChannelPairSt4lessIS1_ESaIS1_EE
libajantv2.so.17.0.1.0:_ZN9CNTV2Card26GetDriverVersionComponentsERtS0_S0_S0_
libajantv2.so.17.0.1.0:_ZN9CNTV2Card26GetEnableHDMIOutCenterCropERb
libajantv2.so.17.0.1.0:_ZN9CNTV2Card26GetInputVerticalEventCountERj11NTV2Channel
libajantv2.so.17.0.1.0:_ZN9CNTV2Card26GetMultiRasterBypassEnableERb
libajantv2.so.17.0.1.0:_ZN9CNTV2Card26GetRunningFirmwareRevisionERt
libajantv2.so.17.0.1.0:_ZN9CNTV2Card26GetSDIOutputDS2AudioSystemE11NTV2ChannelR15NTV2AudioSystem
libajantv2.so.17.0.1.0:_ZN9CNTV2Card26IsBufferSizeChangeRequiredE11NTV2Channel17NTV2FrameGeometry21NTV2FrameBufferFormatS2_
libajantv2.so.17.0.1.0:_ZN9CNTV2Card26IsBufferSizeChangeRequiredE11NTV2Channel17NTV2FrameGeometryS1_21NTV2FrameBufferFormat
libajantv2.so.17.0.1.0:_ZN9CNTV2Card26IsMultiRasterWidgetChannelE11NTV2Channel
libajantv2.so.17.0.1.0:_ZN9CNTV2Card26ReadHDBrightnessAdjustmentERj
libajantv2.so.17.0.1.0:_ZN9CNTV2Card26ReadSDBrightnessAdjustmentERj
libajantv2.so.17.0.1.0:_ZN9CNTV2Card26ReadSDSaturationAdjustmentERj
libajantv2.so.17.0.1.0:_ZN9CNTV2Card26SetAnalogLTCInClockChannelEt11NTV2Channel
libajantv2.so.17.0.1.0:_ZN9CNTV2Card26SetColorSpaceRGBBlackRangeE18NTV2_CSC_RGB_Range11NTV2Channel
libajantv2.so.17.0.1.0:_ZN9CNTV2Card26SetInputVerticalEventCountEj11NTV2Channel
libajantv2.so.17.0.1.0:_ZN9CNTV2Card26SetMultiRasterBypassEnableEb
libajantv2.so.17.0.1.0:_ZN9CNTV2Card26SetSDIOutputDS2AudioSystemE11NTV2Channel15NTV2AudioSystem
libajantv2.so.17.0.1.0:_ZN9CNTV2Card26WriteProcAmpC1CBAdjustmentEj
libajantv2.so.17.0.1.0:_ZN9CNTV2Card26WriteProcAmpC1CRAdjustmentEj
libajantv2.so.17.0.1.0:_ZN9CNTV2Card26WriteProcAmpC2CBAdjustmentEj
libajantv2.so.17.0.1.0:_ZN9CNTV2Card26WriteProcAmpC2CRAdjustmentEj
libajantv2.so.17.0.1.0:_ZN9CNTV2Card27AutoCirculateSetActiveFrameE11NTV2Channelj
libajantv2.so.17.0.1.0:_ZN9CNTV2Card27DeviceGetNumberFrameBuffersE17NTV2FrameGeometry21NTV2FrameBufferFormat
libajantv2.so.17.0.1.0:_ZN9CNTV2Card27DeviceGetNumberFrameBuffersEv
libajantv2.so.17.0.1.0:_ZN9CNTV2Card27GetAnalogLTCOutClockChannelEtR11NTV2Channel
libajantv2.so.17.0.1.0:_ZN9CNTV2Card27GetAudioOutputEmbedderStateE11NTV2ChannelRb
libajantv2.so.17.0.1.0:_ZN9CNTV2Card27GetAudioOutputMonitorSourceER20NTV2AudioChannelPairR15NTV2AudioSystem
libajantv2.so.17.0.1.0:_ZN9CNTV2Card27GetHDMIHDRConstantLuminanceEv
libajantv2.so.17.0.1.0:_ZN9CNTV2Card27GetHDMIInAudioChannel34SwapERb11NTV2Channel
libajantv2.so.17.0.1.0:_ZN9CNTV2Card27GetOutputVerticalEventCountERj11NTV2Channel
libajantv2.so.17.0.1.0:_ZN9CNTV2Card27GetStereoCompressorFlipModeERj
libajantv2.so.17.0.1.0:_ZN9CNTV2Card27GetStereoCompressorStandardER12NTV2Standard
libajantv2.so.17.0.1.0:_ZN9CNTV2Card27InputAudioChannelPairHasPCME11NTV2Channel20NTV2AudioChannelPairRb
libajantv2.so.17.0.1.0:_ZN9CNTV2Card27S2110DeviceAncToXferBuffersE11NTV2ChannelR22AUTOCIRCULATE_TRANSFER
libajantv2.so.17.0.1.0:_ZN9CNTV2Card27SetAnalogLTCOutClockChannelEt11NTV2Channel
libajantv2.so.17.0.1.0:_ZN9CNTV2Card27SetAudioOutputEmbedderStateE11NTV2ChannelRKb
libajantv2.so.17.0.1.0:_ZN9CNTV2Card27SetAudioOutputMonitorSourceE20NTV2AudioChannelPair15NTV2AudioSystem
libajantv2.so.17.0.1.0:_ZN9CNTV2Card27SetHDMIHDRConstantLuminanceEb
libajantv2.so.17.0.1.0:_ZN9CNTV2Card27SetHDMIInAudioChannel34SwapEb11NTV2Channel
libajantv2.so.17.0.1.0:_ZN9CNTV2Card27SetOutputVerticalEventCountEj11NTV2Channel
libajantv2.so.17.0.1.0:_ZN9CNTV2Card27SetStereoCompressorFlipModeEj
libajantv2.so.17.0.1.0:_ZN9CNTV2Card27SetStereoCompressorStandardE12NTV2Standard
libajantv2.so.17.0.1.0:_ZN9CNTV2Card27SubscribeInputVerticalEventE11NTV2Channel
libajantv2.so.17.0.1.0:_ZN9CNTV2Card27SubscribeInputVerticalEventERKSt3setI11NTV2ChannelSt4lessIS1_ESaIS1_EE
libajantv2.so.17.0.1.0:_ZN9CNTV2Card27WriteHDBrightnessAdjustmentEj
libajantv2.so.17.0.1.0:_ZN9CNTV2Card27WriteSDBrightnessAdjustmentEj
libajantv2.so.17.0.1.0:_ZN9CNTV2Card27WriteSDSaturationAdjustmentEj
libajantv2.so.17.0.1.0:_ZN9CNTV2Card28AncInsertSetField2ReadParamsEtjj11NTV2Channel13NTV2Framesize
libajantv2.so.17.0.1.0:_ZN9CNTV2Card28DeviceCanDoFrameBufferFormatE21NTV2FrameBufferFormat
libajantv2.so.17.0.1.0:_ZN9CNTV2Card28GetAnalogAudioTransmitEnableE23NTV2Audio4ChannelSelectRb
libajantv2.so.17.0.1.0:_ZN9CNTV2Card28GetAncRegionOffsetFromBottomERj23NTV2AncillaryDataRegion
libajantv2.so.17.0.1.0:_ZN9CNTV2Card28GetAudioOutputAESSyncModeBitE15NTV2AudioSystemRb
libajantv2.so.17.0.1.0:_ZN9CNTV2Card28GetColorCorrectionOutputBankE11NTV2ChannelRj
libajantv2.so.17.0.1.0:_ZN9CNTV2Card28GetColorCorrectionSaturationE11NTV2ChannelRj
libajantv2.so.17.0.1.0:_ZN9CNTV2Card28GetDetectedAudioChannelPairsE15NTV2AudioSystemRSt3setI20NTV2AudioChannelPairSt4lessIS2_ESaIS2_EE
libajantv2.so.17.0.1.0:_ZN9CNTV2Card28GetEnableFramePulseReferenceERb
libajantv2.so.17.0.1.0:_ZN9CNTV2Card28GetEnableHDMIOutUserOverrideERb
libajantv2.so.17.0.1.0:_ZN9CNTV2Card28GetHDMIHDRDolbyVisionEnabledEv
libajantv2.so.17.0.1.0:_ZN9CNTV2Card28GetHDMIOutAudioChannel34SwapERb11NTV2Channel
libajantv2.so.17.0.1.0:_ZN9CNTV2Card28GetHDMIOutDownstreamBitDepthER16NTV2HDMIBitDepth
libajantv2.so.17.0.1.0:_ZN9CNTV2Card28GetSDIOutRGBLevelAConversionEtRb
libajantv2.so.17.0.1.0:_ZN9CNTV2Card28ReadHDSaturationAdjustmentCbERj
libajantv2.so.17.0.1.0:_ZN9CNTV2Card28ReadHDSaturationAdjustmentCrERj
libajantv2.so.17.0.1.0:_ZN9CNTV2Card28ReadProcAmpOffsetYAdjustmentERj
libajantv2.so.17.0.1.0:_ZN9CNTV2Card28SetAnalogAudioTransmitEnableE23NTV2Audio4ChannelSelectb
libajantv2.so.17.0.1.0:_ZN9CNTV2Card28SetAudioOutputAESSyncModeBitE15NTV2AudioSystemRKb
libajantv2.so.17.0.1.0:_ZN9CNTV2Card28SetColorCorrectionOutputBankE11NTV2Channelj
libajantv2.so.17.0.1.0:_ZN9CNTV2Card28SetColorCorrectionSaturationE11NTV2Channelj
libajantv2.so.17.0.1.0:_ZN9CNTV2Card28SetHDMIOutAudioChannel34SwapEb11NTV2Channel
libajantv2.so.17.0.1.0:_ZN9CNTV2Card28SetSDIOutRGBLevelAConversionERKSt3setI11NTV2ChannelSt4lessIS1_ESaIS1_EEb
libajantv2.so.17.0.1.0:_ZN9CNTV2Card28SetSDIOutRGBLevelAConversionEtb
libajantv2.so.17.0.1.0:_ZN9CNTV2Card28SubscribeOutputVerticalEventE11NTV2Channel
libajantv2.so.17.0.1.0:_ZN9CNTV2Card28SubscribeOutputVerticalEventERKSt3setI11NTV2ChannelSt4lessIS1_ESaIS1_EE
libajantv2.so.17.0.1.0:_ZN9CNTV2Card29AncExtractGetMaxNumFilterDIDsEv
libajantv2.so.17.0.1.0:_ZN9CNTV2Card29GetAnalogAudioIOConfigurationER17NTV2AnalogAudioIO
libajantv2.so.17.0.1.0:_ZN9CNTV2Card29GetAudioMixerInputAudioSystemE19NTV2AudioMixerInputR15NTV2AudioSystem
libajantv2.so.17.0.1.0:_ZN9CNTV2Card29GetAudioPlayCaptureModeEnableE15NTV2AudioSystemRb
libajantv2.so.17.0.1.0:_ZN9CNTV2Card29GetColorSpaceMakeAlphaFromKeyERj11NTV2Channel
libajantv2.so.17.0.1.0:_ZN9CNTV2Card29GetColorSpaceVideoKeySyncFailERb11NTV2Channel
libajantv2.so.17.0.1.0:_ZN9CNTV2Card29GetFrameBufferQuarterSizeModeE11NTV2ChannelR25NTV2QuarterSizeExpandMode
libajantv2.so.17.0.1.0:_ZN9CNTV2Card29GetHDMIOutAudioSource2ChannelER20NTV2AudioChannelPairR15NTV2AudioSystem
libajantv2.so.17.0.1.0:_ZN9CNTV2Card29GetHDMIOutAudioSource8ChannelER23NTV2Audio8ChannelSelectR15NTV2AudioSystem
libajantv2.so.17.0.1.0:_ZN9CNTV2Card29GetStereoCompressorLeftSourceER22NTV2OutputCrosspointID
libajantv2.so.17.0.1.0:_ZN9CNTV2Card29GetStereoCompressorOutputModeER30NTV2StereoCompressorOutputMode
libajantv2.so.17.0.1.0:_ZN9CNTV2Card29S2110DeviceAncFromXferBuffersE11NTV2ChannelR22AUTOCIRCULATE_TRANSFER
libajantv2.so.17.0.1.0:_ZN9CNTV2Card29SetAnalogAudioIOConfigurationE17NTV2AnalogAudioIO
libajantv2.so.17.0.1.0:_ZN9CNTV2Card29SetAudioMixerInputAudioSystemE19NTV2AudioMixerInput15NTV2AudioSystem
libajantv2.so.17.0.1.0:_ZN9CNTV2Card29SetAudioPlayCaptureModeEnableE15NTV2AudioSystemb
libajantv2.so.17.0.1.0:_ZN9CNTV2Card29SetColorSpaceMakeAlphaFromKeyEb11NTV2Channel
libajantv2.so.17.0.1.0:_ZN9CNTV2Card29SetFrameBufferQuarterSizeModeE11NTV2Channel25NTV2QuarterSizeExpandMode
libajantv2.so.17.0.1.0:_ZN9CNTV2Card29SetHDMIOutAudioSource2ChannelE20NTV2AudioChannelPair15NTV2AudioSystem
libajantv2.so.17.0.1.0:_ZN9CNTV2Card29SetHDMIOutAudioSource8ChannelE23NTV2Audio8ChannelSelect15NTV2AudioSystem
libajantv2.so.17.0.1.0:_ZN9CNTV2Card29SetStereoCompressorLeftSourceE22NTV2OutputCrosspointID
libajantv2.so.17.0.1.0:_ZN9CNTV2Card29SetStereoCompressorOutputModeE30NTV2StereoCompressorOutputMode
libajantv2.so.17.0.1.0:_ZN9CNTV2Card29UnsubscribeInputVerticalEventE11NTV2Channel
libajantv2.so.17.0.1.0:_ZN9CNTV2Card29UnsubscribeInputVerticalEventERKSt3setI11NTV2ChannelSt4lessIS1_ESaIS1_EE
libajantv2.so.17.0.1.0:_ZN9CNTV2Card29WaitForInputVerticalInterruptE11NTV2Channelt
libajantv2.so.17.0.1.0:_ZN9CNTV2Card29WriteHDSaturationAdjustmentCbEj
libajantv2.so.17.0.1.0:_ZN9CNTV2Card29WriteHDSaturationAdjustmentCrEj
libajantv2.so.17.0.1.0:_ZN9CNTV2Card29WriteProcAmpOffsetYAdjustmentEj
libajantv2.so.17.0.1.0:_ZN9CNTV2Card30AncExtractSetField2WriteParamsEtj11NTV2Channel13NTV2Framesize
libajantv2.so.17.0.1.0:_ZN9CNTV2Card30GetAudioMixerInputChannelsMuteE19NTV2AudioMixerInputRSt6bitsetILm16EE
libajantv2.so.17.0.1.0:_ZN9CNTV2Card30GetAudioMixerLevelsSampleCountERj
libajantv2.so.17.0.1.0:_ZN9CNTV2Card30GetHDMIHDRMaxContentLightLevelERt
libajantv2.so.17.0.1.0:_ZN9CNTV2Card30GetHDMIOutDownstreamColorSpaceER21NTV2LHIHDMIColorSpace
libajantv2.so.17.0.1.0:_ZN9CNTV2Card30GetInputVerticalInterruptCountERj11NTV2Channel
libajantv2.so.17.0.1.0:_ZN9CNTV2Card30GetStereoCompressorRightSourceER22NTV2OutputCrosspointID
libajantv2.so.17.0.1.0:_ZN9CNTV2Card30GetVPIDTransferCharacteristicsER31NTV2VPIDTransferCharacteristics11NTV2Channel
libajantv2.so.17.0.1.0:_ZN9CNTV2Card30SetAudioMixerInputChannelsMuteE19NTV2AudioMixerInputSt6bitsetILm16EE
libajantv2.so.17.0.1.0:_ZN9CNTV2Card30SetAudioMixerLevelsSampleCountEj
libajantv2.so.17.0.1.0:_ZN9CNTV2Card30SetHDMIHDRMaxContentLightLevelEt
libajantv2.so.17.0.1.0:_ZN9CNTV2Card30SetStereoCompressorRightSourceE22NTV2OutputCrosspointID
libajantv2.so.17.0.1.0:_ZN9CNTV2Card30SetVPIDTransferCharacteristicsE31NTV2VPIDTransferCharacteristics11NTV2Channel
libajantv2.so.17.0.1.0:_ZN9CNTV2Card30UnsubscribeOutputVerticalEventE11NTV2Channel
libajantv2.so.17.0.1.0:_ZN9CNTV2Card30UnsubscribeOutputVerticalEventERKSt3setI11NTV2ChannelSt4lessIS1_ESaIS1_EE
libajantv2.so.17.0.1.0:_ZN9CNTV2Card30WaitForOutputVerticalInterruptE11NTV2Channelt
libajantv2.so.17.0.1.0:_ZN9CNTV2Card31GetAudioMixerInputChannelSelectE19NTV2AudioMixerInputR20NTV2AudioChannelPair
libajantv2.so.17.0.1.0:_ZN9CNTV2Card31GetAudioMixerOutputChannelsMuteERSt6bitsetILm16EE
libajantv2.so.17.0.1.0:_ZN9CNTV2Card31GetColorSpaceCustomCoefficientsER37ColorSpaceConverterCustomCoefficients11NTV2Channel
libajantv2.so.17.0.1.0:_ZN9CNTV2Card31GetHDMIHDRMaxMasteringLuminanceERt
libajantv2.so.17.0.1.0:_ZN9CNTV2Card31GetHDMIHDRMinMasteringLuminanceERt
libajantv2.so.17.0.1.0:_ZN9CNTV2Card31GetOutputVerticalInterruptCountERj11NTV2Channel
libajantv2.so.17.0.1.0:_ZN9CNTV2Card31GetStereoCompressorFlipLeftHorzERj
libajantv2.so.17.0.1.0:_ZN9CNTV2Card31GetStereoCompressorFlipLeftVertERj
libajantv2.so.17.0.1.0:_ZN9CNTV2Card31SetAudioMixerInputChannelSelectE19NTV2AudioMixerInput20NTV2AudioChannelPair
libajantv2.so.17.0.1.0:_ZN9CNTV2Card31SetAudioMixerOutputChannelsMuteESt6bitsetILm16EE
libajantv2.so.17.0.1.0:_ZN9CNTV2Card31SetColorSpaceCustomCoefficientsERK37ColorSpaceConverterCustomCoefficients11NTV2Channel
libajantv2.so.17.0.1.0:_ZN9CNTV2Card31SetHDMIHDRMaxMasteringLuminanceEt
libajantv2.so.17.0.1.0:_ZN9CNTV2Card31SetHDMIHDRMinMasteringLuminanceEt
libajantv2.so.17.0.1.0:_ZN9CNTV2Card31SetStereoCompressorFlipLeftHorzEj
libajantv2.so.17.0.1.0:_ZN9CNTV2Card31SetStereoCompressorFlipLeftVertEj
libajantv2.so.17.0.1.0:_ZN9CNTV2Card32GetColorCorrectionHostAccessBankER33NTV2ColorCorrectionHostAccessBank11NTV2Channel
libajantv2.so.17.0.1.0:_ZN9CNTV2Card32GetInputAudioChannelPairsWithPCME11NTV2ChannelRSt3setI20NTV2AudioChannelPairSt4lessIS2_ESaIS2_EE
libajantv2.so.17.0.1.0:_ZN9CNTV2Card32GetLargestFrameBufferFormatInUseER21NTV2FrameBufferFormat
libajantv2.so.17.0.1.0:_ZN9CNTV2Card32GetMixerVancOutputFromForegroundEtRb
libajantv2.so.17.0.1.0:_ZN9CNTV2Card32GetSDIInLevelBtoLevelAConversionEtRb
libajantv2.so.17.0.1.0:_ZN9CNTV2Card32GetStereoCompressorFlipRightHorzERj
libajantv2.so.17.0.1.0:_ZN9CNTV2Card32GetStereoCompressorFlipRightVertERj
libajantv2.so.17.0.1.0:_ZN9CNTV2Card32ReadHDProcAmpControlsInitializedERj
libajantv2.so.17.0.1.0:_ZN9CNTV2Card32ReadSDProcAmpControlsInitializedERj
libajantv2.so.17.0.1.0:_ZN9CNTV2Card32SetColorCorrectionHostAccessBankE33NTV2ColorCorrectionHostAccessBank
libajantv2.so.17.0.1.0:_ZN9CNTV2Card32SetMixerVancOutputFromForegroundEtb
libajantv2.so.17.0.1.0:_ZN9CNTV2Card32SetSDIInLevelBtoLevelAConversionERKSt3setI11NTV2ChannelSt4lessIS1_ESaIS1_EEb
libajantv2.so.17.0.1.0:_ZN9CNTV2Card32SetSDIInLevelBtoLevelAConversionEtb
libajantv2.so.17.0.1.0:_ZN9CNTV2Card32SetStereoCompressorFlipRightHorzEj
libajantv2.so.17.0.1.0:_ZN9CNTV2Card32SetStereoCompressorFlipRightVertEj
libajantv2.so.17.0.1.0:_ZN9CNTV2Card33GetColorSpaceUseCustomCoefficientERj11NTV2Channel
libajantv2.so.17.0.1.0:_ZN9CNTV2Card33GetRunningFirmwarePackageRevisionERj
libajantv2.so.17.0.1.0:_ZN9CNTV2Card33GetSDIOutLevelAtoLevelBConversionEtRb
libajantv2.so.17.0.1.0:_ZN9CNTV2Card33SetColorSpaceUseCustomCoefficientEj11NTV2Channel
libajantv2.so.17.0.1.0:_ZN9CNTV2Card33SetSDIOutLevelAtoLevelBConversionERKSt3setI11NTV2ChannelSt4lessIS1_ESaIS1_EEb
libajantv2.so.17.0.1.0:_ZN9CNTV2Card33SetSDIOutLevelAtoLevelBConversionEtb
libajantv2.so.17.0.1.0:_ZN9CNTV2Card33WriteHDProcAmpControlsInitializedEj
libajantv2.so.17.0.1.0:_ZN9CNTV2Card33WriteSDProcAmpControlsInitializedEj
libajantv2.so.17.0.1.0:_ZN9CNTV2Card34GetAnalogCompositeInputVideoFormatEv
libajantv2.so.17.0.1.0:_ZN9CNTV2Card35DeviceCanDoHDMIQuadRasterConversionEv
libajantv2.so.17.0.1.0:_ZN9CNTV2Card35GetHDMIHDRMaxFrameAverageLightLevelERt
libajantv2.so.17.0.1.0:_ZN9CNTV2Card35GetInputAudioChannelPairsWithoutPCME11NTV2ChannelRSt3setI20NTV2AudioChannelPairSt4lessIS2_ESaIS2_EE
libajantv2.so.17.0.1.0:_ZN9CNTV2Card35SetHDMIHDRMaxFrameAverageLightLevelEt
libajantv2.so.17.0.1.0:_ZN9CNTV2Card36GetColorSpaceCustomCoefficients12BitER37ColorSpaceConverterCustomCoefficients11NTV2Channel
libajantv2.so.17.0.1.0:_ZN9CNTV2Card36GetHDMIHDRStaticMetadataDescriptorIDERh
libajantv2.so.17.0.1.0:_ZN9CNTV2Card36SetColorSpaceCustomCoefficients12BitERK37ColorSpaceConverterCustomCoefficients11NTV2Channel
libajantv2.so.17.0.1.0:_ZN9CNTV2Card36SetHDMIHDRStaticMetadataDescriptorIDEh
libajantv2.so.17.0.1.0:_ZN9CNTV2Card39GetHDMIInAudioSampleRateConverterEnableERb11NTV2Channel
libajantv2.so.17.0.1.0:_ZN9CNTV2Card39SetHDMIInAudioSampleRateConverterEnableEb11NTV2Channel
libajantv2.so.17.0.1.0:_ZN9CNTV2Card40GetHDMIHDRElectroOpticalTransferFunctionERh
libajantv2.so.17.0.1.0:_ZN9CNTV2Card40SetHDMIHDRElectroOpticalTransferFunctionEh
libajantv2.so.17.0.1.0:_ZN9CNTV2Card7ConnectE21NTV2InputCrosspointID22NTV2OutputCrosspointIDb
libajantv2.so.17.0.1.0:_ZN9CNTV2Card7DMAReadEjPjjj
libajantv2.so.17.0.1.0:_ZN9CNTV2Card7GetModeE11NTV2ChannelR8NTV2Mode
libajantv2.so.17.0.1.0:_ZN9CNTV2Card7SetModeE11NTV2Channel8NTV2Modeb
libajantv2.so.17.0.1.0:_ZN9CNTV2Card7SetModeERKSt3setI11NTV2ChannelSt4lessIS1_ESaIS1_EE8NTV2Mode
libajantv2.so.17.0.1.0:_ZN9CNTV2Card8DMAWriteEjPKjjj
libajantv2.so.17.0.1.0:_ZN9CNTV2CardC1EtRKNSt7__cxx1112basic_stringIcSt11char_traitsIcESaIcEEE
libajantv2.so.17.0.1.0:_ZN9CNTV2CardC1Ev
libajantv2.so.17.0.1.0:_ZN9CNTV2CardC2EtRKNSt7__cxx1112basic_stringIcSt11char_traitsIcESaIcEEE
libajantv2.so.17.0.1.0:_ZN9CNTV2CardC2Ev
libajantv2.so.17.0.1.0:_ZN9CNTV2CardD0Ev
libajantv2.so.17.0.1.0:_ZN9CNTV2CardD1Ev
libajantv2.so.17.0.1.0:_ZN9CNTV2CardD2Ev
libajantv2.so.17.0.1.0:_ZN9CNTV2Task13CopyTaskArrayEP19AutoCircGenericTaskjjPKS0_jj
libajantv2.so.17.0.1.0:_ZN9CNTV2Task13GetTaskStructEv
libajantv2.so.17.0.1.0:_ZN9CNTV2Task13InitTaskArrayEP19AutoCircGenericTaskj
libajantv2.so.17.0.1.0:_ZN9CNTV2Task19AddRegisterReadTaskEjjj
libajantv2.so.17.0.1.0:_ZN9CNTV2Task19AddTimeCodeReadTaskEv
libajantv2.so.17.0.1.0:_ZN9CNTV2Task20AddRegisterWriteTaskEjjjj
libajantv2.so.17.0.1.0:_ZN9CNTV2Task20AddTimeCodeWriteTaskEP12RP188_STRUCTS1_S1_S1_S1_S1_S1_S1_S1_S1_S1_S1_
libajantv2.so.17.0.1.0:_ZN9CNTV2Task4InitEv
libajantv2.so.17.0.1.0:_ZN9CNTV2Task5ClearEv
libajantv2.so.17.0.1.0:_ZN9CNTV2Task7GetTaskEj
libajantv2.so.17.0.1.0:_ZN9CNTV2TaskC1ERKS_
libajantv2.so.17.0.1.0:_ZN9CNTV2TaskC1Ev
libajantv2.so.17.0.1.0:_ZN9CNTV2TaskC2ERKS_
libajantv2.so.17.0.1.0:_ZN9CNTV2TaskC2Ev
libajantv2.so.17.0.1.0:_ZN9CNTV2TaskD0Ev
libajantv2.so.17.0.1.0:_ZN9CNTV2TaskD1Ev
libajantv2.so.17.0.1.0:_ZN9CNTV2TaskD2Ev
libajantv2.so.17.0.1.0:_ZN9CNTV2TaskaSERKS_
libajantv2.so.17.0.1.0:_ZN9CNTV2VPID10LinkStringB5cxx11E8VPIDLink
libajantv2.so.17.0.1.0:_ZN9CNTV2VPID10SetChannelE11VPIDChannel
libajantv2.so.17.0.1.0:_ZN9CNTV2VPID10SetVersionE11VPIDVersion
libajantv2.so.17.0.1.0:_ZN9CNTV2VPID11AudioStringB5cxx11E9VPIDAudio
libajantv2.so.17.0.1.0:_ZN9CNTV2VPID11SetBitDepthE12VPIDBitDepth
libajantv2.so.17.0.1.0:_ZN9CNTV2VPID11SetRGBRangeE16NTV2VPIDRGBRange
libajantv2.so.17.0.1.0:_ZN9CNTV2VPID11SetSamplingE12VPIDSampling
libajantv2.so.17.0.1.0:_ZN9CNTV2VPID11SetStandardE12VPIDStandard
libajantv2.so.17.0.1.0:_ZN9CNTV2VPID11SetVPIDDataERj16_NTV2VideoFormat21NTV2FrameBufferFormatbb11VPIDChannelb
libajantv2.so.17.0.1.0:_ZN9CNTV2VPID11SetVPIDDataERj16_NTV2VideoFormatbbbb11VPIDChannelbbb31NTV2VPIDTransferCharacteristics19NTV2VPIDColorimetry17NTV2VPIDLuminance16NTV2VPIDRGBRange
libajantv2.so.17.0.1.0:_ZN9CNTV2VPID12SetLuminanceE17NTV2VPIDLuminance
libajantv2.so.17.0.1.0:_ZN9CNTV2VPID13ChannelStringB5cxx11E11VPIDChannel
libajantv2.so.17.0.1.0:_ZN9CNTV2VPID13VersionStringB5cxx11E11VPIDVersion
libajantv2.so.17.0.1.0:_ZN9CNTV2VPID14BitDepthStringB5cxx11E12VPIDBitDepth
libajantv2.so.17.0.1.0:_ZN9CNTV2VPID14SamplingStringB5cxx11E12VPIDSampling
libajantv2.so.17.0.1.0:_ZN9CNTV2VPID14SetColorimetryE19NTV2VPIDColorimetry
libajantv2.so.17.0.1.0:_ZN9CNTV2VPID14SetPictureRateE15VPIDPictureRate
libajantv2.so.17.0.1.0:_ZN9CNTV2VPID14StandardStringB5cxx11E12VPIDStandard
libajantv2.so.17.0.1.0:_ZN9CNTV2VPID17PictureRateStringB5cxx11E15VPIDPictureRate
libajantv2.so.17.0.1.0:_ZN9CNTV2VPID18DynamicRangeStringB5cxx11E16VPIDDynamicRange
libajantv2.so.17.0.1.0:_ZN9CNTV2VPID18SetDualLinkChannelE11VPIDChannel
libajantv2.so.17.0.1.0:_ZN9CNTV2VPID18SetImageAspect16x9Eb
libajantv2.so.17.0.1.0:_ZN9CNTV2VPID19VPIDVersionToStringB5cxx11E11VPIDVersion
libajantv2.so.17.0.1.0:_ZN9CNTV2VPID20VPIDStandardToStringB5cxx11E12VPIDStandard
libajantv2.so.17.0.1.0:_ZN9CNTV2VPID21SetProgressivePictureEb
libajantv2.so.17.0.1.0:_ZN9CNTV2VPID21VPIDStandardIsOctLinkE12VPIDStandard
libajantv2.so.17.0.1.0:_ZN9CNTV2VPID22VPIDStandardIsDualLinkE12VPIDStandard
libajantv2.so.17.0.1.0:_ZN9CNTV2VPID22VPIDStandardIsQuadLinkE12VPIDStandard
libajantv2.so.17.0.1.0:_ZN9CNTV2VPID23SetProgressiveTransportEb
libajantv2.so.17.0.1.0:_ZN9CNTV2VPID24VPIDStandardIsSingleLinkE12VPIDStandard
libajantv2.so.17.0.1.0:_ZN9CNTV2VPID26SetTransferCharacteristicsE31NTV2VPIDTransferCharacteristics
libajantv2.so.17.0.1.0:_ZN9CNTV2VPID7SetVPIDE16_NTV2VideoFormat21NTV2FrameBufferFormatbb11VPIDChannel
libajantv2.so.17.0.1.0:_ZN9CNTV2VPID7SetVPIDE16_NTV2VideoFormatbbbb11VPIDChannel
libajantv2.so.17.0.1.0:_ZN9CNTV2VPIDC1ERKS_
libajantv2.so.17.0.1.0:_ZN9CNTV2VPIDC1Ej
libajantv2.so.17.0.1.0:_ZN9CNTV2VPIDC2ERKS_
libajantv2.so.17.0.1.0:_ZN9CNTV2VPIDC2Ej
libajantv2.so.17.0.1.0:_ZN9CNTV2VPIDaSERKS_
libajantv2.so.17.0.1.0:_ZNK10AJAVariant6AsBoolEv
libajantv2.so.17.0.1.0:_ZNK10AJAVariant6AsInt8Ev
libajantv2.so.17.0.1.0:_ZNK10AJAVariant7AsFloatEv
libajantv2.so.17.0.1.0:_ZNK10AJAVariant7AsInt16Ev
libajantv2.so.17.0.1.0:_ZNK10AJAVariant7AsInt32Ev
libajantv2.so.17.0.1.0:_ZNK10AJAVariant7AsInt64Ev
libajantv2.so.17.0.1.0:_ZNK10AJAVariant7AsUInt8Ev
libajantv2.so.17.0.1.0:_ZNK10AJAVariant7GetBoolEv
libajantv2.so.17.0.1.0:_ZNK10AJAVariant7GetInt8Ev
libajantv2.so.17.0.1.0:_ZNK10AJAVariant8AsDoubleEv
libajantv2.so.17.0.1.0:_ZNK10AJAVariant8AsStringB5cxx11Ev
libajantv2.so.17.0.1.0:_ZNK10AJAVariant8AsUInt16Ev
libajantv2.so.17.0.1.0:_ZNK10AJAVariant8AsUInt32Ev
libajantv2.so.17.0.1.0:_ZNK10AJAVariant8AsUInt64Ev
libajantv2.so.17.0.1.0:_ZNK10AJAVariant8GetFloatEv
libajantv2.so.17.0.1.0:_ZNK10AJAVariant8GetInt16Ev
libajantv2.so.17.0.1.0:_ZNK10AJAVariant8GetInt32Ev
libajantv2.so.17.0.1.0:_ZNK10AJAVariant8GetInt64Ev
libajantv2.so.17.0.1.0:_ZNK10AJAVariant8GetUInt8Ev
libajantv2.so.17.0.1.0:_ZNK10AJAVariant9GetDoubleEv
libajantv2.so.17.0.1.0:_ZNK10AJAVariant9GetStringB5cxx11Ev
libajantv2.so.17.0.1.0:_ZNK10AJAVariant9GetUInt16Ev
libajantv2.so.17.0.1.0:_ZNK10AJAVariant9GetUInt32Ev
libajantv2.so.17.0.1.0:_ZNK10AJAVariant9GetUInt64Ev
libajantv2.so.17.0.1.0:_ZNK10AJAVariantcvNSt7__cxx1112basic_stringIcSt11char_traitsIcESaIcEEEEv
libajantv2.so.17.0.1.0:_ZNK10AJAVariantcvaEv
libajantv2.so.17.0.1.0:_ZNK10AJAVariantcvbEv
libajantv2.so.17.0.1.0:_ZNK10AJAVariantcvdEv
libajantv2.so.17.0.1.0:_ZNK10AJAVariantcvfEv
libajantv2.so.17.0.1.0:_ZNK10AJAVariantcvhEv
libajantv2.so.17.0.1.0:_ZNK10AJAVariantcviEv
libajantv2.so.17.0.1.0:_ZNK10AJAVariantcvjEv
libajantv2.so.17.0.1.0:_ZNK10AJAVariantcvlEv
libajantv2.so.17.0.1.0:_ZNK10AJAVariantcvmEv
libajantv2.so.17.0.1.0:_ZNK10AJAVariantcvsEv
libajantv2.so.17.0.1.0:_ZNK10AJAVariantcvtEv
libajantv2.so.17.0.1.0:_ZNK10NTV2Buffer14GetHostAddressEjb
libajantv2.so.17.0.1.0:_ZNK10NTV2Buffer14IsContentEqualERKS_jj
libajantv2.so.17.0.1.0:_ZNK10NTV2Buffer14NextDifferenceERKS_Rj
libajantv2.so.17.0.1.0:_ZNK10NTV2Buffer23GetRingChangedByteRangeERKS_RjS2_
libajantv2.so.17.0.1.0:_ZNK10NTV2Buffer4DumpERNSt7__cxx1112basic_stringIcSt11char_traitsIcESaIcEEEmmmmmmbm
libajantv2.so.17.0.1.0:_ZNK10NTV2Buffer4DumpERSommmmmmbm
libajantv2.so.17.0.1.0:_ZNK10NTV2Buffer5PrintERSo
libajantv2.so.17.0.1.0:_ZNK10NTV2Buffer6GetU8sERSt6vectorIhSaIhEEmm
libajantv2.so.17.0.1.0:_ZNK10NTV2Buffer7FindAllERSt3setIjSt4lessIjESaIjEERKS_
libajantv2.so.17.0.1.0:_ZNK10NTV2Buffer7GetU16sERSt6vectorItSaItEEmmb
libajantv2.so.17.0.1.0:_ZNK10NTV2Buffer7GetU32sERSt6vectorIjSaIjEEmmb
libajantv2.so.17.0.1.0:_ZNK10NTV2Buffer7GetU64sERSt6vectorImSaImEEmmb
libajantv2.so.17.0.1.0:_ZNK10NTV2Buffer7SegmentERS_jj
libajantv2.so.17.0.1.0:_ZNK10NTV2Buffer8AsStringB5cxx11Et
libajantv2.so.17.0.1.0:_ZNK10NTV2Buffer9AppendU8sERSt6vectorIhSaIhEE
libajantv2.so.17.0.1.0:_ZNK10NTV2Buffer9GetStringERNSt7__cxx1112basic_stringIcSt11char_traitsIcESaIcEEEmm
libajantv2.so.17.0.1.0:_ZNK11AJATimeBase11GetTickRateEv
libajantv2.so.17.0.1.0:_ZNK11AJATimeBase12GetAudioRateEv
libajantv2.so.17.0.1.0:_ZNK11AJATimeBase12GetFrameRateERlS0_
libajantv2.so.17.0.1.0:_ZNK11AJATimeBase13FramesToTicksElb
libajantv2.so.17.0.1.0:_ZNK11AJATimeBase14SamplesToTicksElb
libajantv2.so.17.0.1.0:_ZNK11AJATimeBase15FramesToSamplesElb
libajantv2.so.17.0.1.0:_ZNK11AJATimeBase15FramesToSecondsEl
libajantv2.so.17.0.1.0:_ZNK11AJATimeBase15GetAJAFrameRateEv
libajantv2.so.17.0.1.0:_ZNK11AJATimeBase15SamplesToFramesElb
libajantv2.so.17.0.1.0:_ZNK11AJATimeBase16GetFrameDurationEv
libajantv2.so.17.0.1.0:_ZNK11AJATimeBase17GetFrameTimeScaleEv
libajantv2.so.17.0.1.0:_ZNK11AJATimeBase18GetFramesPerSecondEv
libajantv2.so.17.0.1.0:_ZNK11AJATimeBase18IsNonIntegralRatioEv
libajantv2.so.17.0.1.0:_ZNK11AJATimeBase19ScaleUnitsToSecondsEl
libajantv2.so.17.0.1.0:_ZNK11AJATimeBase20FramesToMicrosecondsElb
libajantv2.so.17.0.1.0:_ZNK11AJATimeBase22FramesToNanoseconds100Elb
libajantv2.so.17.0.1.0:_ZNK11AJATimeBase24GetFramesPerSecondDoubleEv
libajantv2.so.17.0.1.0:_ZNK11AJATimeBase9IsCloseToERKS_
libajantv2.so.17.0.1.0:_ZNK11AJATimeBase9IsCloseToEll
libajantv2.so.17.0.1.0:_ZNK11AJATimeBaseeqERKS_
libajantv2.so.17.0.1.0:_ZNK11AJATimeBaseneERKS_
libajantv2.so.17.0.1.0:_ZNK11AJATimeCode10QueryFrameEv
libajantv2.so.17.0.1.0:_ZNK11AJATimeCode9QueryHmsfERjS0_S0_S0_RK11AJATimeBaseb
libajantv2.so.17.0.1.0:_ZNK11AJATimeCodeeqERKS_
libajantv2.so.17.0.1.0:_ZNK11AJATimeCodegtERKS_
libajantv2.so.17.0.1.0:_ZNK11AJATimeCodegtEi
libajantv2.so.17.0.1.0:_ZNK11AJATimeCodeltERKS_
libajantv2.so.17.0.1.0:_ZNK11AJATimeCodeltEi
libajantv2.so.17.0.1.0:_ZNK11AJATimeCodemiERKS_
libajantv2.so.17.0.1.0:_ZNK11AJATimeCodemiEi
libajantv2.so.17.0.1.0:_ZNK11AJATimeCodeneERKS_
libajantv2.so.17.0.1.0:_ZNK11AJATimeCodeplERKS_
libajantv2.so.17.0.1.0:_ZNK11AJATimeCodeplEi
libajantv2.so.17.0.1.0:_ZNK11FRAME_STAMP16GetInputTimeCodeER10NTV2_RP18811NTV2TCIndex
libajantv2.so.17.0.1.0:_ZNK11FRAME_STAMP17GetInputTimeCodesERSt3mapI11NTV2TCIndex10NTV2_RP188St4lessIS1_ESaISt4pairIKS1_S2_EEE11NTV2Channelb
libajantv2.so.17.0.1.0:_ZNK11FRAME_STAMP17GetInputTimeCodesERSt6vectorI10NTV2_RP188SaIS1_EE
libajantv2.so.17.0.1.0:_ZNK11FRAME_STAMP17GetSDIInputStatusER18NTV2SDIInputStatust
libajantv2.so.17.0.1.0:_ZNK11FRAME_STAMP6CopyToER18FRAME_STAMP_STRUCT
libajantv2.so.17.0.1.0:_ZNK11FRAME_STAMPixB5cxx11Ej
libajantv2.so.17.0.1.0:_ZNK11NTV2RegInfo5PrintERSob
libajantv2.so.17.0.1.0:_ZNK11NTV2RegInfo9PrintCodeERSoi12NTV2DeviceID
libajantv2.so.17.0.1.0:_ZNK11NTV2RegInfoltERKS_
libajantv2.so.17.0.1.0:_ZNK11NTV2_HEADER5PrintERSo
libajantv2.so.17.0.1.0:_ZNK12AJADPXFileIO11GetLoopModeEv
libajantv2.so.17.0.1.0:_ZNK12AJADPXFileIO12GetFileCountEv
libajantv2.so.17.0.1.0:_ZNK12AJADPXFileIO12GetPauseModeEv
libajantv2.so.17.0.1.0:_ZNK12AJADPXFileIO5WriteERKhjRKj
libajantv2.so.17.0.1.0:_ZNK12AJADPXFileIO7GetPathB5cxx11Ev
libajantv2.so.17.0.1.0:_ZNK12AJADPXFileIO8GetIndexEv
libajantv2.so.17.0.1.0:_ZNK12AJADebugStat3SumEm
libajantv2.so.17.0.1.0:_ZNK12AJADebugStat7AverageEv
libajantv2.so.17.0.1.0:_ZNK12AJADebugStat7MaximumEm
libajantv2.so.17.0.1.0:_ZNK12AJADebugStat7MinimumEm
libajantv2.so.17.0.1.0:_ZNK12AJADebugStateqERKS_
libajantv2.so.17.0.1.0:_ZNK12CNTV2Bitfile11GetDeviceIDEv
libajantv2.so.17.0.1.0:_ZNK12CNTV2Bitfile14CanFlashDeviceE12NTV2DeviceID
libajantv2.so.17.0.1.0:_ZNK12CNTV2MCSfile23GetMCSPackageDateStringB5cxx11Ev
libajantv2.so.17.0.1.0:_ZNK12CNTV2MCSfile26GetMCSPackageVersionStringB5cxx11Ev
libajantv2.so.17.0.1.0:_ZNK12CNTV2MCSfile7isReadyEv
libajantv2.so.17.0.1.0:_ZNK12SDRAMAuditor10DumpBlocksERSo
libajantv2.so.17.0.1.0:_ZNK12SDRAMAuditor10GetRegionsERSt6vectorIjSaIjEES3_S3_
libajantv2.so.17.0.1.0:_ZNK12SDRAMAuditor11GetTagCountEt
libajantv2.so.17.0.1.0:_ZNK12SDRAMAuditor16TranslateRegionsERSt6vectorIjSaIjEERKS2_bb
libajantv2.so.17.0.1.0:_ZNK12SDRAMAuditor20GetTagsForFrameIndexEtRSt3setINSt7__cxx1112basic_stringIcSt11char_traitsIcESaIcEEESt4lessIS6_ESaIS6_EE
libajantv2.so.17.0.1.0:_ZNK12SDRAMAuditor7RawDumpERSo
libajantv2.so.17.0.1.0:_ZNK13AJAAncDataLoc15CompareWithInfoB5cxx11ERKS_
libajantv2.so.17.0.1.0:_ZNK13AJAAncDataLoc5PrintERSob
libajantv2.so.17.0.1.0:_ZNK13AJAAncDataLoc7CompareERKS_
libajantv2.so.17.0.1.0:_ZNK13AJASystemInfo18GetLabelValuePairsERSt6vectorISt4pairINSt7__cxx1112basic_stringIcSt11char_traitsIcESaIcEEES7_ESaIS8_EEb
libajantv2.so.17.0.1.0:_ZNK13AJASystemInfo8GetLabelE16AJASystemInfoTagRNSt7__cxx1112basic_stringIcSt11char_traitsIcESaIcEEE
libajantv2.so.17.0.1.0:_ZNK13AJASystemInfo8GetValueE16AJASystemInfoTagRNSt7__cxx1112basic_stringIcSt11char_traitsIcESaIcEEE
libajantv2.so.17.0.1.0:_ZNK13AJASystemInfo8ToStringB5cxx11Emm
libajantv2.so.17.0.1.0:_ZNK13AJASystemInfo8ToStringERNSt7__cxx1112basic_stringIcSt11char_traitsIcESaIcEEE
libajantv2.so.17.0.1.0:_ZNK13NTV2Bitstream5PrintERSo
libajantv2.so.17.0.1.0:_ZNK13NTV2DmaStream5PrintERSo
libajantv2.so.17.0.1.0:_ZNK13RoutingExpert11IsSDIWidgetE14NTV2WidgetType
libajantv2.so.17.0.1.0:_ZNK13RoutingExpert12IsHDMIWidgetE14NTV2WidgetType
libajantv2.so.17.0.1.0:_ZNK13RoutingExpert13Is3GSDIWidgetE14NTV2WidgetType
libajantv2.so.17.0.1.0:_ZNK13RoutingExpert13IsKeyInputXptE21NTV2InputCrosspointID
libajantv2.so.17.0.1.0:_ZNK13RoutingExpert13IsSDIInWidgetE14NTV2WidgetType
libajantv2.so.17.0.1.0:_ZNK13RoutingExpert14Is12GSDIWidgetE14NTV2WidgetType
libajantv2.so.17.0.1.0:_ZNK13RoutingExpert14IsHDMIInWidgetE14NTV2WidgetType
libajantv2.so.17.0.1.0:_ZNK13RoutingExpert14IsSDIOutWidgetE14NTV2WidgetType
libajantv2.so.17.0.1.0:_ZNK13RoutingExpert15GetWidgetInputsE12NTV2WidgetIDRSt3setI21NTV2InputCrosspointIDSt4lessIS2_ESaIS2_EE
libajantv2.so.17.0.1.0:_ZNK13RoutingExpert15IsHDMIOutWidgetE14NTV2WidgetType
libajantv2.so.17.0.1.0:_ZNK13RoutingExpert16GetWidgetOutputsE12NTV2WidgetIDRSt3setI22NTV2OutputCrosspointIDSt4lessIS2_ESaIS2_EE
libajantv2.so.17.0.1.0:_ZNK13RoutingExpert16InputXptToStringB5cxx11E21NTV2InputCrosspointID
libajantv2.so.17.0.1.0:_ZNK13RoutingExpert16IsDualLinkWidgetE14NTV2WidgetType
libajantv2.so.17.0.1.0:_ZNK13RoutingExpert16IsOutputXptValidE22NTV2OutputCrosspointID
libajantv2.so.17.0.1.0:_ZNK13RoutingExpert16StringToInputXptERKNSt7__cxx1112basic_stringIcSt11char_traitsIcESaIcEEE
libajantv2.so.17.0.1.0:_ZNK13RoutingExpert17IsRGBOnlyInputXptE21NTV2InputCrosspointID
libajantv2.so.17.0.1.0:_ZNK13RoutingExpert17IsYUVOnlyInputXptE21NTV2InputCrosspointID
libajantv2.so.17.0.1.0:_ZNK13RoutingExpert17OutputXptToStringB5cxx11E22NTV2OutputCrosspointID
libajantv2.so.17.0.1.0:_ZNK13RoutingExpert17StringToOutputXptERKNSt7__cxx1112basic_stringIcSt11char_traitsIcESaIcEEE
libajantv2.so.17.0.1.0:_ZNK13RoutingExpert18GetWidgetsForInputE21NTV2InputCrosspointIDRSt3setI12NTV2WidgetIDSt4lessIS2_ESaIS2_EE
libajantv2.so.17.0.1.0:_ZNK13RoutingExpert18IsDualLinkInWidgetE14NTV2WidgetType
libajantv2.so.17.0.1.0:_ZNK13RoutingExpert19GetWidgetsForOutputE22NTV2OutputCrosspointIDRSt3setI12NTV2WidgetIDSt4lessIS2_ESaIS2_EE
libajantv2.so.17.0.1.0:_ZNK13RoutingExpert19IsDualLinkOutWidgetE14NTV2WidgetType
libajantv2.so.17.0.1.0:_ZNK14CNTV2CSCMatrix14GetCoefficientE12NTV2CSCCoeff
libajantv2.so.17.0.1.0:_ZNK14CNTV2CSCMatrix9GetOffsetE13NTV2CSCOffset
libajantv2.so.17.0.1.0:_ZNK14CNTV2CSCMatrixeqERKS_
libajantv2.so.17.0.1.0:_ZNK14NTV2BufferLock5PrintERSo
libajantv2.so.17.0.1.0:_ZNK14NTV2DeviceInfoeqERKS_
libajantv2.so.17.0.1.0:_ZNK14NTV2Dictionary11valueForKeyERKNSt7__cxx1112basic_stringIcSt11char_traitsIcESaIcEEE
libajantv2.so.17.0.1.0:_ZNK14NTV2Dictionary14largestKeySizeEv
libajantv2.so.17.0.1.0:_ZNK14NTV2Dictionary14u16ValueForKeyERKNSt7__cxx1112basic_stringIcSt11char_traitsIcESaIcEEEt
libajantv2.so.17.0.1.0:_ZNK14NTV2Dictionary16largestValueSizeEv
libajantv2.so.17.0.1.0:_ZNK14NTV2Dictionary4keysB5cxx11Ev
libajantv2.so.17.0.1.0:_ZNK14NTV2Dictionary5PrintERSob
libajantv2.so.17.0.1.0:_ZNK15NTV2VirtualData5PrintERSo
libajantv2.so.17.0.1.0:_ZNK16AJAAncillaryData10IDAsStringB5cxx11Ev
libajantv2.so.17.0.1.0:_ZNK16AJAAncillaryData11DumpPayloadERSo
libajantv2.so.17.0.1.0:_ZNK16AJAAncillaryData13GetStreamInfoEv
libajantv2.so.17.0.1.0:_ZNK16AJAAncillaryData14GetPayloadDataEPhj
libajantv2.so.17.0.1.0:_ZNK16AJAAncillaryData14GetPayloadDataERSt6vectorItSaItEEb
libajantv2.so.17.0.1.0:_ZNK16AJAAncillaryData15CompareWithInfoB5cxx11ERKS_bb
libajantv2.so.17.0.1.0:_ZNK16AJAAncillaryData16GetRawPacketSizeERj
libajantv2.so.17.0.1.0:_ZNK16AJAAncillaryData18GetGUMPHeaderByte2Ev
libajantv2.so.17.0.1.0:_ZNK16AJAAncillaryData21Calculate8BitChecksumEv
libajantv2.so.17.0.1.0:_ZNK16AJAAncillaryData21Calculate9BitChecksumEv
libajantv2.so.17.0.1.0:_ZNK16AJAAncillaryData21GetPayloadByteAtIndexEj
libajantv2.so.17.0.1.0:_ZNK16AJAAncillaryData5CloneEv
libajantv2.so.17.0.1.0:_ZNK16AJAAncillaryData5PrintERSob
libajantv2.so.17.0.1.0:_ZNK16AJAAncillaryData7CompareERKS_bb
libajantv2.so.17.0.1.0:_ZNK16AJAAncillaryData8AsStringB5cxx11Et
libajantv2.so.17.0.1.0:_ZNK16AJAAncillaryDataeqERKS_
libajantv2.so.17.0.1.0:_ZNK16AJAAncillaryList15CompareWithInfoB5cxx11ERKS_bb
libajantv2.so.17.0.1.0:_ZNK16AJAAncillaryList15CompareWithInfoERSt6vectorINSt7__cxx1112basic_stringIcSt11char_traitsIcESaIcEEESaIS6_EERKS_bb
libajantv2.so.17.0.1.0:_ZNK16AJAAncillaryList21GetAncillaryPacketIDsEv
libajantv2.so.17.0.1.0:_ZNK16AJAAncillaryList22GetAncillaryDataWithIDEhhj
libajantv2.so.17.0.1.0:_ZNK16AJAAncillaryList23GetAncillaryDataAtIndexEj
libajantv2.so.17.0.1.0:_ZNK16AJAAncillaryList24CountAncillaryDataWithIDEhh
libajantv2.so.17.0.1.0:_ZNK16AJAAncillaryList24GetAncillaryDataWithTypeE14AJAAncDataTypej
libajantv2.so.17.0.1.0:_ZNK16AJAAncillaryList26CountAncillaryDataWithTypeE14AJAAncDataType
libajantv2.so.17.0.1.0:_ZNK16AJAAncillaryList5PrintERSob
libajantv2.so.17.0.1.0:_ZNK16AJAAncillaryList7CompareERKS_bb
libajantv2.so.17.0.1.0:_ZNK16CNTV2EnhancedCSC14SendToHardwareER9CNTV2Card11NTV2Channel
libajantv2.so.17.0.1.0:_ZNK16NTV2ACFrameRange8toStringB5cxx11Eb
libajantv2.so.17.0.1.0:_ZNK16NTV2DebugLogging5PrintERSo
libajantv2.so.17.0.1.0:_ZNK16NTV2GetRegisters15GetBadRegistersERSt3setIjSt4lessIjESaIjEE
libajantv2.so.17.0.1.0:_ZNK16NTV2GetRegisters16GetGoodRegistersERSt3setIjSt4lessIjESaIjEE
libajantv2.so.17.0.1.0:_ZNK16NTV2GetRegisters17GetRegisterValuesERSt3mapIjjSt4lessIjESaISt4pairIKjjEEE
libajantv2.so.17.0.1.0:_ZNK16NTV2GetRegisters17GetRegisterValuesERSt6vectorI11NTV2RegInfoSaIS1_EE
libajantv2.so.17.0.1.0:_ZNK16NTV2GetRegisters27GetRequestedRegisterNumbersERSt3setIjSt4lessIjESaIjEE
libajantv2.so.17.0.1.0:_ZNK16NTV2GetRegisters5PrintERSo
libajantv2.so.17.0.1.0:_ZNK16NTV2RPCClientAPI11DescriptionB5cxx11Ev
libajantv2.so.17.0.1.0:_ZNK16NTV2RPCClientAPI5PrintERSo
libajantv2.so.17.0.1.0:_ZNK16NTV2RPCServerAPI5PrintERSo
libajantv2.so.17.0.1.0:_ZNK16NTV2SetRegisters23GetFailedRegisterWritesERSt6vectorI11NTV2RegInfoSaIS1_EE
libajantv2.so.17.0.1.0:_ZNK16NTV2SetRegisters26GetRequestedRegisterWritesERSt6vectorI11NTV2RegInfoSaIS1_EE
libajantv2.so.17.0.1.0:_ZNK16NTV2SetRegisters5PrintERSo
libajantv2.so.17.0.1.0:_ZNK17CNTV2SignalRouter13HasConnectionE21NTV2InputCrosspointID22NTV2OutputCrosspointID
libajantv2.so.17.0.1.0:_ZNK17CNTV2SignalRouter17GetRegisterWritesERSt6vectorI11NTV2RegInfoSaIS1_EE
libajantv2.so.17.0.1.0:_ZNK17CNTV2SignalRouter18GetConnectedOutputE21NTV2InputCrosspointID
libajantv2.so.17.0.1.0:_ZNK17CNTV2SignalRouter5PrintERSob
libajantv2.so.17.0.1.0:_ZNK17CNTV2SignalRouter7CompareERKS_RSt3mapI21NTV2InputCrosspointID22NTV2OutputCrosspointIDSt4lessIS3_ESaISt4pairIKS3_S4_EEESC_SC_
libajantv2.so.17.0.1.0:_ZNK17CNTV2SignalRouter8HasInputE21NTV2InputCrosspointID
libajantv2.so.17.0.1.0:_ZNK17CNTV2SignalRouter9PrintCodeERNSt7__cxx1112basic_stringIcSt11char_traitsIcESaIcEEERKNS_15PrintCodeConfigE
libajantv2.so.17.0.1.0:_ZNK18CNTV2DeviceScanner18SetAudioAttributesER14NTV2DeviceInfoR9CNTV2Card
libajantv2.so.17.0.1.0:_ZNK18CNTV2SupportLogger12FetchInfoLogERNSt7__cxx1119basic_ostringstreamIcSt11char_traitsIcESaIcEEE
libajantv2.so.17.0.1.0:_ZNK18CNTV2SupportLogger13FetchAudioLogERNSt7__cxx1119basic_ostringstreamIcSt11char_traitsIcESaIcEEE
libajantv2.so.17.0.1.0:_ZNK18CNTV2SupportLogger15FetchRoutingLogERNSt7__cxx1119basic_ostringstreamIcSt11char_traitsIcESaIcEEE
libajantv2.so.17.0.1.0:_ZNK18CNTV2SupportLogger16FetchRegisterLogERNSt7__cxx1119basic_ostringstreamIcSt11char_traitsIcESaIcEEE
libajantv2.so.17.0.1.0:_ZNK18CNTV2SupportLogger21FetchAutoCirculateLogERNSt7__cxx1119basic_ostringstreamIcSt11char_traitsIcESaIcEEE
libajantv2.so.17.0.1.0:_ZNK18CNTV2SupportLogger8ToStringB5cxx11Ev
libajantv2.so.17.0.1.0:_ZNK18CNTV2SupportLogger8ToStringERNSt7__cxx1112basic_stringIcSt11char_traitsIcESaIcEEE
libajantv2.so.17.0.1.0:_ZNK18NTV2SDIInputStatus5PrintERSo
libajantv2.so.17.0.1.0:_ZNK18NTV2TestPatternGen11GetStandardERiRbS1_
libajantv2.so.17.0.1.0:_ZNK18NTV2TestPatternGen12IsSDStandardEv
libajantv2.so.17.0.1.0:_ZNK19NTV2SDIInStatistics5PrintERSo
libajantv2.so.17.0.1.0:_ZNK19NTV2SmpteLineNumber11GetLastLineE11NTV2FieldID
libajantv2.so.17.0.1.0:_ZNK19NTV2SmpteLineNumber15PrintLineNumberB5cxx11Ej11NTV2FieldID
libajantv2.so.17.0.1.0:_ZNK19NTV2SmpteLineNumber18GetFirstActiveLineE11NTV2FieldID
libajantv2.so.17.0.1.0:_ZNK19NTV2SmpteLineNumber5PrintERSo
libajantv2.so.17.0.1.0:_ZNK20AJACommandLineOption12GetExtraDescB5cxx11Ev
libajantv2.so.17.0.1.0:_ZNK20AJACommandLineOption15GetDefaultValueB5cxx11Ev
libajantv2.so.17.0.1.0:_ZNK20AJACommandLineOption7GetDescB5cxx11Ev
libajantv2.so.17.0.1.0:_ZNK20AJACommandLineOption8GetNamesB5cxx11Ev
libajantv2.so.17.0.1.0:_ZNK20AJACommandLineOption8GetValueB5cxx11Em
libajantv2.so.17.0.1.0:_ZNK20AJACommandLineOption9GetValuesB5cxx11Ev
libajantv2.so.17.0.1.0:_ZNK20AJACommandLineParser11GetHelpTextB5cxx11Ev
libajantv2.so.17.0.1.0:_ZNK20AJACommandLineParser11ValueStringERKNSt7__cxx1112basic_stringIcSt11char_traitsIcESaIcEEEm
libajantv2.so.17.0.1.0:_ZNK20AJACommandLineParser12GetUsageTextB5cxx11Ev
libajantv2.so.17.0.1.0:_ZNK20AJACommandLineParser12OptionByNameERKNSt7__cxx1112basic_stringIcSt11char_traitsIcESaIcEEER20AJACommandLineOption
libajantv2.so.17.0.1.0:_ZNK20AJACommandLineParser12ValueStringsERKNSt7__cxx1112basic_stringIcSt11char_traitsIcESaIcEEE
libajantv2.so.17.0.1.0:_ZNK20AJACommandLineParser5IsSetERKNSt7__cxx1112basic_stringIcSt11char_traitsIcESaIcEEE
libajantv2.so.17.0.1.0:_ZNK20AJACommandLineParser5ValueERKNSt7__cxx1112basic_stringIcSt11char_traitsIcESaIcEEEm
libajantv2.so.17.0.1.0:_ZNK20AJACommandLineParser6ValuesERKNSt7__cxx1112basic_stringIcSt11char_traitsIcESaIcEEE
libajantv2.so.17.0.1.0:_ZNK20AJACommandLineParser7GetNameB5cxx11Ev
libajantv2.so.17.0.1.0:_ZNK20AUTOCIRCULATE_STATUS10GetChannelEv
libajantv2.so.17.0.1.0:_ZNK20AUTOCIRCULATE_STATUSixB5cxx11Ej
libajantv2.so.17.0.1.0:_ZNK20CNTV2DriverInterface25GetRecordedRegisterWritesERSt6vectorI11NTV2RegInfoSaIS1_EE
libajantv2.so.17.0.1.0:_ZNK20CNTV2DriverInterface25IsRecordingRegisterWritesEv
libajantv2.so.17.0.1.0:_ZNK20CNTV2DriverInterface28GetNumRecordedRegisterWritesEv
libajantv2.so.17.0.1.0:_ZNK20NTV2DeviceSpecParser10InfoStringB5cxx11Ev
libajantv2.so.17.0.1.0:_ZNK20NTV2DeviceSpecParser11DeviceIndexEv
libajantv2.so.17.0.1.0:_ZNK20NTV2DeviceSpecParser11PrintErrorsERSo
libajantv2.so.17.0.1.0:_ZNK20NTV2DeviceSpecParser12DeviceSerialEv
libajantv2.so.17.0.1.0:_ZNK20NTV2DeviceSpecParser5PrintERSob
libajantv2.so.17.0.1.0:_ZNK20NTV2DeviceSpecParser8DeviceIDEv
libajantv2.so.17.0.1.0:_ZNK20NTV2DeviceSpecParser8ResourceB5cxx11Eb
libajantv2.so.17.0.1.0:_ZNK20NTV2FormatDescriptor10Is2KFormatEv
libajantv2.so.17.0.1.0:_ZNK20NTV2FormatDescriptor12GetRowBufferERK10NTV2BufferRS0_jt
libajantv2.so.17.0.1.0:_ZNK20NTV2FormatDescriptor13GetRowAddressEPKvjt
libajantv2.so.17.0.1.0:_ZNK20NTV2FormatDescriptor13GetTotalBytesEv
libajantv2.so.17.0.1.0:_ZNK20NTV2FormatDescriptor13IsAtLineStartEj
libajantv2.so.17.0.1.0:_ZNK20NTV2FormatDescriptor13PlaneToStringB5cxx11Et
libajantv2.so.17.0.1.0:_ZNK20NTV2FormatDescriptor15GetChangedLinesERSt6vectorIjSaIjEEPKvS5_j
libajantv2.so.17.0.1.0:_ZNK20NTV2FormatDescriptor17ByteOffsetToPlaneEj
libajantv2.so.17.0.1.0:_ZNK20NTV2FormatDescriptor17GetVideoWriteSizeEj
libajantv2.so.17.0.1.0:_ZNK20NTV2FormatDescriptor18GetFirstChangedRowEPKvS1_Rj
libajantv2.so.17.0.1.0:_ZNK20NTV2FormatDescriptor18GetSMPTELineNumberEjRjRb
libajantv2.so.17.0.1.0:_ZNK20NTV2FormatDescriptor20GetSegmentedXferInfoER21NTV2SegmentedXferInfob
libajantv2.so.17.0.1.0:_ZNK20NTV2FormatDescriptor20PrintSMPTELineNumberERSojb
libajantv2.so.17.0.1.0:_ZNK20NTV2FormatDescriptor22ByteOffsetToRasterLineEj
libajantv2.so.17.0.1.0:_ZNK20NTV2FormatDescriptor22GetVerticalSampleRatioEt
libajantv2.so.17.0.1.0:_ZNK20NTV2FormatDescriptor22GetWriteableRowAddressEPvjt
libajantv2.so.17.0.1.0:_ZNK20NTV2FormatDescriptor22RasterLineToByteOffsetEjt
libajantv2.so.17.0.1.0:_ZNK20NTV2FormatDescriptor23GetFullRasterDimensionsEv
libajantv2.so.17.0.1.0:_ZNK20NTV2FormatDescriptor26GetLineOffsetFromSMPTELineEjRj
libajantv2.so.17.0.1.0:_ZNK20NTV2FormatDescriptor26GetVisibleRasterDimensionsEv
libajantv2.so.17.0.1.0:_ZNK20NTV2FormatDescriptor5PrintERSob
libajantv2.so.17.0.1.0:_ZNK20NTV2FormatDescriptoreqERKS_
libajantv2.so.17.0.1.0:_ZNK20NTV2HDMIOutputStatus5PrintERSo
libajantv2.so.17.0.1.0:_ZNK21AJARTPAncPacketHeader14AsDataLocationEv
libajantv2.so.17.0.1.0:_ZNK21AJARTPAncPacketHeader19WriteToULWordVectorERSt6vectorIjSaIjEEb
libajantv2.so.17.0.1.0:_ZNK21AJARTPAncPacketHeader5PrintERSo
libajantv2.so.17.0.1.0:_ZNK21AJARTPAncPacketHeader9GetULWordEv
libajantv2.so.17.0.1.0:_ZNK21NTV2BankSelGetSetRegs10GetRegInfoEt
libajantv2.so.17.0.1.0:_ZNK21NTV2BankSelGetSetRegs5PrintERSo
libajantv2.so.17.0.1.0:_ZNK21NTV2SegmentedXferInfo13getSourceCodeB5cxx11Eb
libajantv2.so.17.0.1.0:_ZNK21NTV2SegmentedXferInfo23containsElementAtOffsetEj
libajantv2.so.17.0.1.0:_ZNK21NTV2SegmentedXferInfo5PrintERSob
libajantv2.so.17.0.1.0:_ZNK21NTV2SegmentedXferInfoneERKS_
libajantv2.so.17.0.1.0:_ZNK22AJARTPAncPayloadHeader13WriteToBufferER10NTV2Bufferj
libajantv2.so.17.0.1.0:_ZNK22AJARTPAncPayloadHeader19WriteToULWordVectorERSt6vectorIjSaIjEEb
libajantv2.so.17.0.1.0:_ZNK22AJARTPAncPayloadHeader29GetPacketHeaderULWordForIndexEjRj
libajantv2.so.17.0.1.0:_ZNK22AJARTPAncPayloadHeader5PrintERSo
libajantv2.so.17.0.1.0:_ZNK22AJARTPAncPayloadHeader6IsNULLEv
libajantv2.so.17.0.1.0:_ZNK22AJARTPAncPayloadHeader7IsValidEv
libajantv2.so.17.0.1.0:_ZNK22AJARTPAncPayloadHeadereqERKS_
libajantv2.so.17.0.1.0:_ZNK22AUTOCIRCULATE_TRANSFER16GetInputTimeCodeER10NTV2_RP18811NTV2TCIndex
libajantv2.so.17.0.1.0:_ZNK22AUTOCIRCULATE_TRANSFER17GetInputTimeCodesERSt3mapI11NTV2TCIndex10NTV2_RP188St4lessIS1_ESaISt4pairIKS1_S2_EEE11NTV2Channelb
libajantv2.so.17.0.1.0:_ZNK22AUTOCIRCULATE_TRANSFER17GetInputTimeCodesERSt6vectorI10NTV2_RP188SaIS1_EE
libajantv2.so.17.0.1.0:_ZNK22AUTOCIRCULATE_TRANSFER20SegmentedDMAsEnabledEv
libajantv2.so.17.0.1.0:_ZNK23AJAAncillaryData_Cea60814GetCEA608BytesERhS0_Rb
libajantv2.so.17.0.1.0:_ZNK23AJAAncillaryData_Cea60819GetCEA608CharactersERhS0_Rb
libajantv2.so.17.0.1.0:_ZNK23AJAAncillaryData_Cea6085PrintERSob
libajantv2.so.17.0.1.0:_ZNK23AJAAncillaryData_Cea7085PrintERSob
libajantv2.so.17.0.1.0:_ZNK23NTV2BitfileHeaderParser10DesignNameB5cxx11Ev
libajantv2.so.17.0.1.0:_ZNK24AJAAncillaryData_HDR_HLG5PrintERSob
libajantv2.so.17.0.1.0:_ZNK24AJAAncillaryData_HDR_SDR5PrintERSob
libajantv2.so.17.0.1.0:_ZNK25AJAAncillaryData_Timecode11GetTimecodeER11AJATimeCodeR11AJATimeBase
libajantv2.so.17.0.1.0:_ZNK25AJAAncillaryData_Timecode13GetTimeDigitsERhS0_S0_S0_S0_S0_S0_S0_
libajantv2.so.17.0.1.0:_ZNK25AJAAncillaryData_Timecode14GetFieldIdFlagERb32AJAAncillaryData_Timecode_Format
libajantv2.so.17.0.1.0:_ZNK25AJAAncillaryData_Timecode14TimecodeStringB5cxx11Ev
libajantv2.so.17.0.1.0:_ZNK25AJAAncillaryData_Timecode15GetBinaryGroupsERhS0_S0_S0_S0_S0_S0_S0_
libajantv2.so.17.0.1.0:_ZNK25AJAAncillaryData_Timecode15GetTimeHexValueEhRhh
libajantv2.so.17.0.1.0:_ZNK25AJAAncillaryData_Timecode16GetDropFrameFlagERb32AJAAncillaryData_Timecode_Format
libajantv2.so.17.0.1.0:_ZNK25AJAAncillaryData_Timecode17GetColorFrameFlagERb32AJAAncillaryData_Timecode_Format
libajantv2.so.17.0.1.0:_ZNK25AJAAncillaryData_Timecode18GetBinaryGroupFlagERh32AJAAncillaryData_Timecode_Format
libajantv2.so.17.0.1.0:_ZNK25AJAAncillaryData_Timecode22GetBinaryGroupHexValueEhRhh
libajantv2.so.17.0.1.0:_ZNK25AJAAncillaryData_Timecode5PrintERSob
libajantv2.so.17.0.1.0:_ZNK25AJAAncillaryData_Timecode7GetTimeE32AJAAncillaryData_Timecode_FormatRjS1_S1_S1_
libajantv2.so.17.0.1.0:_ZNK26AJAAncillaryData_HDR_HDR105PrintERSob
libajantv2.so.17.0.1.0:_ZNK28AJAAncillaryData_Cea608_Vanc5PrintERSob
libajantv2.so.17.0.1.0:_ZNK28AJAAncillaryData_Cea608_Vanc7GetLineERhS0_
libajantv2.so.17.0.1.0:_ZNK29AJAAncillaryData_Timecode_ATC18GetDBB1PayloadTypeER45AJAAncillaryData_Timecode_ATC_DBB1PayloadType
libajantv2.so.17.0.1.0:_ZNK29AJAAncillaryData_Timecode_ATC5PrintERSob
libajantv2.so.17.0.1.0:_ZNK29AJAAncillaryData_Timecode_ATC6GetDBBERhS0_
libajantv2.so.17.0.1.0:_ZNK29AJAAncillaryData_Timecode_ATC7GetDBB1ERh
libajantv2.so.17.0.1.0:_ZNK29AJAAncillaryData_Timecode_ATC7GetDBB2ERh
libajantv2.so.17.0.1.0:_ZNK30AJAAncillaryData_Cea608_Line2110DecodeLineERhS0_Rb
libajantv2.so.17.0.1.0:_ZNK30AJAAncillaryData_Timecode_VITC10EncodeLineEPh
libajantv2.so.17.0.1.0:_ZNK30AJAAncillaryData_Timecode_VITC5PrintERSob
libajantv2.so.17.0.1.0:_ZNK36AJAAncillaryData_FrameStatusInfo524D5PrintERSob
libajantv2.so.17.0.1.0:_ZNK36AJAAncillaryData_FrameStatusInfo52515PrintERSob
libajantv2.so.17.0.1.0:_ZNK6AJAPnp11GetCallbackEv
libajantv2.so.17.0.1.0:_ZNK6AJAPnp13GetPnpDevicesEv
libajantv2.so.17.0.1.0:_ZNK6AJAPnp9GetRefConEv
libajantv2.so.17.0.1.0:_ZNK6CRP18811FormatIsPALE14TimecodeFormat
libajantv2.so.17.0.1.0:_ZNK6CRP18811GetRP188HrsERj
libajantv2.so.17.0.1.0:_ZNK6CRP18811GetRP188RegER10NTV2_RP188
libajantv2.so.17.0.1.0:_ZNK6CRP18811GetRP188RegER12RP188_STRUCT
libajantv2.so.17.0.1.0:_ZNK6CRP18811GetRP188StrERNSt7__cxx1112basic_stringIcSt11char_traitsIcESaIcEEE
libajantv2.so.17.0.1.0:_ZNK6CRP18812GetRP188FrmsERj
libajantv2.so.17.0.1.0:_ZNK6CRP18812GetRP188MinsERj
libajantv2.so.17.0.1.0:_ZNK6CRP18812GetRP188SecsERj
libajantv2.so.17.0.1.0:_ZNK6CRP18815FramesPerSecondE14TimecodeFormat
libajantv2.so.17.0.1.0:_ZNK6CRP18815GetOutputFilterEv
libajantv2.so.17.0.1.0:_ZNK6CRP18815GetRP188CStringEv
libajantv2.so.17.0.1.0:_ZNK6CRP18815MaxFramesPerDayE14TimecodeFormat
libajantv2.so.17.0.1.0:_ZNK6CRP18816FormatIs60_50fpsE14TimecodeFormat
libajantv2.so.17.0.1.0:_ZNK6CRP18817FormatIsDropFrameE14TimecodeFormat
libajantv2.so.17.0.1.0:_ZNK6CRP18833DefaultFrameRateForTimecodeFormatE14TimecodeFormat
libajantv2.so.17.0.1.0:_ZNK6CRP1889GetSourceEv
libajantv2.so.17.0.1.0:_ZNK6DpxHdr10get_s2_idsEPhS0_S0_
libajantv2.so.17.0.1.0:_ZNK6DpxHdr12get_ii_linesEv
libajantv2.so.17.0.1.0:_ZNK6DpxHdr13get_film_typeB5cxx11Ev
libajantv2.so.17.0.1.0:_ZNK6DpxHdr13get_ii_pixelsEv
libajantv2.so.17.0.1.0:_ZNK6DpxHdr14get_fi_creatorB5cxx11Ev
libajantv2.so.17.0.1.0:_ZNK6DpxHdr14get_fi_projectB5cxx11Ev
libajantv2.so.17.0.1.0:_ZNK6DpxHdr14get_fi_versionB5cxx11Ev
libajantv2.so.17.0.1.0:_ZNK6DpxHdr14get_film_countB5cxx11Ev
libajantv2.so.17.0.1.0:_ZNK6DpxHdr14get_ie_packingEi
libajantv2.so.17.0.1.0:_ZNK6DpxHdr14get_s2_tcframeEv
libajantv2.so.17.0.1.0:_ZNK6DpxHdr15get_film_formatB5cxx11Ev
libajantv2.so.17.0.1.0:_ZNK6DpxHdr15get_film_mfg_idB5cxx11Ev
libajantv2.so.17.0.1.0:_ZNK6DpxHdr15get_film_offsetB5cxx11Ev
libajantv2.so.17.0.1.0:_ZNK6DpxHdr15get_film_prefixB5cxx11Ev
libajantv2.so.17.0.1.0:_ZNK6DpxHdr15get_ie_bit_sizeEi
libajantv2.so.17.0.1.0:_ZNK6DpxHdr15get_ie_encodingEi
libajantv2.so.17.0.1.0:_ZNK6DpxHdr15get_ie_transferEi
libajantv2.so.17.0.1.0:_ZNK6DpxHdr15get_is_filenameB5cxx11Ev
libajantv2.so.17.0.1.0:_ZNK6DpxHdr15get_tv_timecodeEv
libajantv2.so.17.0.1.0:_ZNK6DpxHdr15get_tv_userbitsEv
libajantv2.so.17.0.1.0:_ZNK6DpxHdr16get_fi_copyrightB5cxx11Ev
libajantv2.so.17.0.1.0:_ZNK6DpxHdr16get_fi_file_nameB5cxx11Ev
libajantv2.so.17.0.1.0:_ZNK6DpxHdr16get_fi_file_sizeEv
libajantv2.so.17.0.1.0:_ZNK6DpxHdr16get_tv_interlaceEv
libajantv2.so.17.0.1.0:_ZNK6DpxHdr17get_fi_time_stampB5cxx11Ev
libajantv2.so.17.0.1.0:_ZNK6DpxHdr17get_film_frame_idB5cxx11Ev
libajantv2.so.17.0.1.0:_ZNK6DpxHdr17get_ie_descriptorEi
libajantv2.so.17.0.1.0:_ZNK6DpxHdr17get_s2_filenumberEv
libajantv2.so.17.0.1.0:_ZNK6DpxHdr17get_tv_frame_rateEv
libajantv2.so.17.0.1.0:_ZNK6DpxHdr18get_fi_create_timeB5cxx11Ev
libajantv2.so.17.0.1.0:_ZNK6DpxHdr18get_ie_data_offsetEi
libajantv2.so.17.0.1.0:_ZNK6DpxHdr18get_ie_descriptionB5cxx11Ei
libajantv2.so.17.0.1.0:_ZNK6DpxHdr18get_ie_eol_paddingEi
libajantv2.so.17.0.1.0:_ZNK6DpxHdr18get_ii_orientationEv
libajantv2.so.17.0.1.0:_ZNK6DpxHdr19get_fi_image_offsetEv
libajantv2.so.17.0.1.0:_ZNK6DpxHdr19get_film_frame_rateEv
libajantv2.so.17.0.1.0:_ZNK6DpxHdr19get_film_held_countEv
libajantv2.so.17.0.1.0:_ZNK6DpxHdr19get_film_slate_infoB5cxx11Ev
libajantv2.so.17.0.1.0:_ZNK6DpxHdr19get_ie_colorimetricEi
libajantv2.so.17.0.1.0:_ZNK6DpxHdr19get_ie_ref_low_dataEi
libajantv2.so.17.0.1.0:_ZNK6DpxHdr19get_is_input_deviceB5cxx11Ev
libajantv2.so.17.0.1.0:_ZNK6DpxHdr19get_is_input_serialB5cxx11Ev
libajantv2.so.17.0.1.0:_ZNK6DpxHdr20get_ie_ref_high_dataEi
libajantv2.so.17.0.1.0:_ZNK6DpxHdr20get_is_creation_timeB5cxx11Ev
libajantv2.so.17.0.1.0:_ZNK6DpxHdr21get_film_sequence_lenEv
libajantv2.so.17.0.1.0:_ZNK6DpxHdr21get_ii_element_numberEv
libajantv2.so.17.0.1.0:_ZNK6DpxHdr22get_film_shutter_angleEv
libajantv2.so.17.0.1.0:_ZNK6DpxHdr23get_film_frame_positionEv
libajantv2.so.17.0.1.0:_ZNK6DpxHdr23get_ie_eo_image_paddingEi
libajantv2.so.17.0.1.0:_ZNK6DpxHdr23get_ie_ref_low_quantityEi
libajantv2.so.17.0.1.0:_ZNK6DpxHdr24get_ie_ref_high_quantityEi
libajantv2.so.17.0.1.0:_ZNK6DpxHdr5validEv
libajantv2.so.17.0.1.0:_ZNK7MacAddr8AsStringB5cxx11Ev
libajantv2.so.17.0.1.0:_ZNK8AJATimer11ElapsedTimeEv
libajantv2.so.17.0.1.0:_ZNK8AJATimer5PrintERSo
libajantv2.so.17.0.1.0:_ZNK9AJAFileIO4SeekEl14AJAFileSetFlag
libajantv2.so.17.0.1.0:_ZNK9AJAFileIO5WriteEPKhj
libajantv2.so.17.0.1.0:_ZNK9AJAFileIO5WriteERKNSt7__cxx1112basic_stringIcSt11char_traitsIcESaIcEEE
libajantv2.so.17.0.1.0:_ZNK9CNTV2Card18IS_CHANNEL_INVALIDE11NTV2Channel
libajantv2.so.17.0.1.0:_ZNK9CNTV2Card23IS_INPUT_SPIGOT_INVALIDEt
libajantv2.so.17.0.1.0:_ZNK9CNTV2Card24IS_OUTPUT_SPIGOT_INVALIDEt
libajantv2.so.17.0.1.0:_ZNK9CNTV2Task11GetMaxTasksEv
libajantv2.so.17.0.1.0:_ZNK9CNTV2Task11GetNumTasksEv
libajantv2.so.17.0.1.0:_ZNK9CNTV2Task7GetTaskEj
libajantv2.so.17.0.1.0:_ZNK9CNTV2VPID10GetChannelEv
libajantv2.so.17.0.1.0:_ZNK9CNTV2VPID10GetVersionEv
libajantv2.so.17.0.1.0:_ZNK9CNTV2VPID11GetBitDepthEv
libajantv2.so.17.0.1.0:_ZNK9CNTV2VPID11GetRGBRangeEv
libajantv2.so.17.0.1.0:_ZNK9CNTV2VPID11GetSamplingEv
libajantv2.so.17.0.1.0:_ZNK9CNTV2VPID11GetStandardEv
libajantv2.so.17.0.1.0:_ZNK9CNTV2VPID11PrintPrettyERSo
libajantv2.so.17.0.1.0:_ZNK9CNTV2VPID12GetLuminanceEv
libajantv2.so.17.0.1.0:_ZNK9CNTV2VPID13IsRGBSamplingEv
libajantv2.so.17.0.1.0:_ZNK9CNTV2VPID13IsStandard3GaEv
libajantv2.so.17.0.1.0:_ZNK9CNTV2VPID14GetColorimetryEv
libajantv2.so.17.0.1.0:_ZNK9CNTV2VPID14GetPictureRateEv
libajantv2.so.17.0.1.0:_ZNK9CNTV2VPID14GetVideoFormatEv
libajantv2.so.17.0.1.0:_ZNK9CNTV2VPID18GetDualLinkChannelEv
libajantv2.so.17.0.1.0:_ZNK9CNTV2VPID18GetImageAspect16x9Ev
libajantv2.so.17.0.1.0:_ZNK9CNTV2VPID21GetProgressivePictureEv
libajantv2.so.17.0.1.0:_ZNK9CNTV2VPID23GetProgressiveTransportEv
libajantv2.so.17.0.1.0:_ZNK9CNTV2VPID23IsStandardMultiLink4320Ev
libajantv2.so.17.0.1.0:_ZNK9CNTV2VPID26GetTransferCharacteristicsEv
libajantv2.so.17.0.1.0:_ZNK9CNTV2VPID29IsStandardTwoSampleInterleaveEv
libajantv2.so.17.0.1.0:_ZNK9CNTV2VPID5PrintERSo
libajantv2.so.17.0.1.0:_ZNK9CNTV2VPID7GetInfoERSt6vectorISt4pairINSt7__cxx1112basic_stringIcSt11char_traitsIcESaIcEEES7_ESaIS8_EE
libajantv2.so.17.0.1.0:_ZNK9CNTV2VPID8AsStringB5cxx11Eb
libajantv2.so.17.0.1.0:_ZNKSt23__codecvt_abstract_baseIwc11__mbstate_tE2inERS0_PKcS4_RS4_PwS6_RS6_
libajantv2.so.17.0.1.0:_ZNKSt23__codecvt_abstract_baseIwc11__mbstate_tE3outERS0_PKwS4_RS4_PcS6_RS6_
libajantv2.so.17.0.1.0:_ZlsRSo19NTV2FrameDimensions
libajantv2.so.17.0.1.0:_ZlsRSoRK10NTV2Buffer
libajantv2.so.17.0.1.0:_ZlsRSoRK10NTV2_RP188
libajantv2.so.17.0.1.0:_ZlsRSoRK11FRAME_STAMP
libajantv2.so.17.0.1.0:_ZlsRSoRK11NTV2RegInfo
libajantv2.so.17.0.1.0:_ZlsRSoRK11NTV2_HEADER
libajantv2.so.17.0.1.0:_ZlsRSoRK12AJADebugStat
libajantv2.so.17.0.1.0:_ZlsRSoRK12NTV2_TRAILER
libajantv2.so.17.0.1.0:_ZlsRSoRK12RP188_STRUCT
libajantv2.so.17.0.1.0:_ZlsRSoRK13AJAAncDataLoc
libajantv2.so.17.0.1.0:_ZlsRSoRK13AJASystemInfo
libajantv2.so.17.0.1.0:_ZlsRSoRK14NTV2DeviceInfo
libajantv2.so.17.0.1.0:_ZlsRSoRK17CNTV2SignalRouter
libajantv2.so.17.0.1.0:_ZlsRSoRK18CNTV2SupportLogger
libajantv2.so.17.0.1.0:_ZlsRSoRK19AutoCircGenericTask
libajantv2.so.17.0.1.0:_ZlsRSoRK19AutoCircVidProcInfo
libajantv2.so.17.0.1.0:_ZlsRSoRK19NTV2SmpteLineNumber
libajantv2.so.17.0.1.0:_ZlsRSoRK20AUTOCIRCULATE_STATUS
libajantv2.so.17.0.1.0:_ZlsRSoRK20AutoCircRegisterTask
libajantv2.so.17.0.1.0:_ZlsRSoRK20AutoCircTimeCodeTask
libajantv2.so.17.0.1.0:_ZlsRSoRK20NTV2SegmentedDMAInfo
libajantv2.so.17.0.1.0:_ZlsRSoRK21NTV2SegmentedXferInfo
libajantv2.so.17.0.1.0:_ZlsRSoRK22AUTOCIRCULATE_TRANSFER
libajantv2.so.17.0.1.0:_ZlsRSoRK23NTV2AudioPhysicalFormat
libajantv2.so.17.0.1.0:_ZlsRSoRK23NTV2ColorCorrectionData
libajantv2.so.17.0.1.0:_ZlsRSoRK29AUTOCIRCULATE_TRANSFER_STATUS
libajantv2.so.17.0.1.0:_ZlsRSoRK6CRP188
libajantv2.so.17.0.1.0:_ZlsRSoRK9CNTV2Task
libajantv2.so.17.0.1.0:_ZlsRSoRK9CNTV2VPID
libajantv2.so.17.0.1.0:_ZlsRSoRKSt3mapI11NTV2TCIndex10NTV2_RP188St4lessIS1_ESaISt4pairIKS1_S2_EEE
libajantv2.so.17.0.1.0:_ZlsRSoRKSt3mapI21NTV2InputCrosspointID22NTV2OutputCrosspointIDSt4lessIS1_ESaISt4pairIKS1_S2_EEE
libajantv2.so.17.0.1.0:_ZlsRSoRKSt3mapIjjSt4lessIjESaISt4pairIKjjEEE
libajantv2.so.17.0.1.0:_ZlsRSoRKSt3setI11NTV2TCIndexSt4lessIS1_ESaIS1_EE
libajantv2.so.17.0.1.0:_ZlsRSoRKSt3setI12NTV2DeviceIDSt4lessIS1_ESaIS1_EE
libajantv2.so.17.0.1.0:_ZlsRSoRKSt3setI12NTV2StandardSt4lessIS1_ESaIS1_EE
libajantv2.so.17.0.1.0:_ZlsRSoRKSt3setI12NTV2WidgetIDSt4lessIS1_ESaIS1_EE
libajantv2.so.17.0.1.0:_ZlsRSoRKSt3setI13NTV2FrameRateSt4lessIS1_ESaIS1_EE
libajantv2.so.17.0.1.0:_ZlsRSoRKSt3setI15NTV2InputSourceSt4lessIS1_ESaIS1_EE
libajantv2.so.17.0.1.0:_ZlsRSoRKSt3setI16_NTV2VideoFormatSt4lessIS1_ESaIS1_EE
libajantv2.so.17.0.1.0:_ZlsRSoRKSt3setI17NTV2FrameGeometrySt4lessIS1_ESaIS1_EE
libajantv2.so.17.0.1.0:_ZlsRSoRKSt3setI20NTV2AudioChannelPairSt4lessIS1_ESaIS1_EE
libajantv2.so.17.0.1.0:_ZlsRSoRKSt3setI21NTV2FrameBufferFormatSt4lessIS1_ESaIS1_EE
libajantv2.so.17.0.1.0:_ZlsRSoRKSt3setI21NTV2InputCrosspointIDSt4lessIS1_ESaIS1_EE
libajantv2.so.17.0.1.0:_ZlsRSoRKSt3setI21NTV2OutputDestinationSt4lessIS1_ESaIS1_EE
libajantv2.so.17.0.1.0:_ZlsRSoRKSt3setI22NTV2OutputCrosspointIDSt4lessIS1_ESaIS1_EE
libajantv2.so.17.0.1.0:_ZlsRSoRKSt3setI23NTV2Audio4ChannelSelectSt4lessIS1_ESaIS1_EE
libajantv2.so.17.0.1.0:_ZlsRSoRKSt3setI23NTV2Audio8ChannelSelectSt4lessIS1_ESaIS1_EE
libajantv2.so.17.0.1.0:_ZlsRSoRKSt3setINSt7__cxx1112basic_stringIcSt11char_traitsIcESaIcEEESt4lessIS6_ESaIS6_EE
libajantv2.so.17.0.1.0:_ZlsRSoRKSt3setIhSt4lessIhESaIhEE
libajantv2.so.17.0.1.0:_ZlsRSoRKSt3setIjSt4lessIjESaIjEE
libajantv2.so.17.0.1.0:_ZlsRSoRKSt3setItSt4lessItESaItEE
libajantv2.so.17.0.1.0:_ZlsRSoRKSt4pairINSt7__cxx1112basic_stringIcSt11char_traitsIcESaIcEEES6_E
libajantv2.so.17.0.1.0:_ZlsRSoRKSt4pairIhhE
libajantv2.so.17.0.1.0:_ZlsRSoRKSt6vectorI10NTV2_RP188SaIS1_EE
libajantv2.so.17.0.1.0:_ZlsRSoRKSt6vectorI11NTV2RegInfoSaIS1_EE
libajantv2.so.17.0.1.0:_ZlsRSoRKSt6vectorI12NTV2DeviceIDSaIS1_EE
libajantv2.so.17.0.1.0:_ZlsRSoRKSt6vectorI14NTV2DeviceInfoSaIS1_EE
libajantv2.so.17.0.1.0:_ZlsRSoRKSt6vectorI15AudioSourceEnumSaIS1_EE
libajantv2.so.17.0.1.0:_ZlsRSoRKSt6vectorI19AudioSampleRateEnumSaIS1_EE
libajantv2.so.17.0.1.0:_ZlsRSoRKSt6vectorI22AudioBitsPerSampleEnumSaIS1_EE
libajantv2.so.17.0.1.0:_ZlsRSoRKSt6vectorI22NTV2OutputCrosspointIDSaIS1_EE
libajantv2.so.17.0.1.0:_ZlsRSoRKSt6vectorI23NTV2AudioPhysicalFormatSaIS1_EE
libajantv2.so.17.0.1.0:_ZlsRSoRKSt6vectorI25AudioChannelsPerFrameEnumSaIS1_EE
libajantv2.so.17.0.1.0:_ZlsRSoRKSt6vectorINSt7__cxx1112basic_stringIcSt11char_traitsIcESaIcEEESaIS6_EE
libajantv2.so.17.0.1.0:_ZlsRSoRKSt6vectorIS0_IjSaIjEESaIS2_EE
libajantv2.so.17.0.1.0:_ZlsRSoRKSt6vectorISt4pairINSt7__cxx1112basic_stringIcSt11char_traitsIcESaIcEEES7_ESaIS8_EE
libajantv2.so.17.0.1.0:_ZlsRSoRKSt6vectorIdSaIdEE
libajantv2.so.17.0.1.0:_ZlsRSoRKSt6vectorIjSaIjEE
libajantv2.so.17.0.1.0:_ZlsRSoRKSt6vectorImSaImEE
libajantv2.so.17.0.1.0:_ZlsRSoRKSt6vectorItSaItEE
libajantv2.so.17.0.1.0:_ZlsRSt3setIjSt4lessIjESaIjEEj
libajantv2.so.17.0.1.0:_ZlsRSt6vectorI10NTV2_RP188SaIS0_EERKS0_
libajantv2.so.17.0.1.0:_ZpLRSt3setI11NTV2TCIndexSt4lessIS0_ESaIS0_EERKS4_
libajantv2.so.17.0.1.0:_ZpLRSt3setI12NTV2StandardSt4lessIS0_ESaIS0_EES4_
libajantv2.so.17.0.1.0:_ZpLRSt3setI13NTV2FrameRateSt4lessIS0_ESaIS0_EERKS4_
libajantv2.so.17.0.1.0:_ZpLRSt3setI15NTV2InputSourceSt4lessIS0_ESaIS0_EERKS4_
libajantv2.so.17.0.1.0:_ZpLRSt3setI17NTV2FrameGeometrySt4lessIS0_ESaIS0_EES4_
libajantv2.so.17.0.1.0:_ZpLRSt3setI21NTV2FrameBufferFormatSt4lessIS0_ESaIS0_EES4_
libajantv2.so.17.0.1.0:_ZpLRSt3setI21NTV2OutputDestinationSt4lessIS0_ESaIS0_EERKS4_
libajantv2.so.17.0.1.0:poptAddAlias
libajantv2.so.17.0.1.0:poptAddItem
libajantv2.so.17.0.1.0:poptBadOption
libajantv2.so.17.0.1.0:poptBitsAdd
libajantv2.so.17.0.1.0:poptBitsArgs
libajantv2.so.17.0.1.0:poptBitsChk
libajantv2.so.17.0.1.0:poptBitsClr
libajantv2.so.17.0.1.0:poptBitsDel
libajantv2.so.17.0.1.0:poptBitsIntersect
libajantv2.so.17.0.1.0:poptBitsUnion
libajantv2.so.17.0.1.0:poptConfigFileToString
libajantv2.so.17.0.1.0:poptDupArgv
libajantv2.so.17.0.1.0:poptFini
libajantv2.so.17.0.1.0:poptFreeContext
libajantv2.so.17.0.1.0:poptGetArg
libajantv2.so.17.0.1.0:poptGetArgs
libajantv2.so.17.0.1.0:poptGetContext
libajantv2.so.17.0.1.0:poptGetInvocationName
libajantv2.so.17.0.1.0:poptGetNextOpt
libajantv2.so.17.0.1.0:poptGetOptArg
libajantv2.so.17.0.1.0:poptInit
libajantv2.so.17.0.1.0:poptParseArgvString
libajantv2.so.17.0.1.0:poptPeekArg
libajantv2.so.17.0.1.0:poptPrintHelp
libajantv2.so.17.0.1.0:poptPrintUsage
libajantv2.so.17.0.1.0:poptReadConfigFile
libajantv2.so.17.0.1.0:poptReadConfigFiles
libajantv2.so.17.0.1.0:poptReadDefaultConfig
libajantv2.so.17.0.1.0:poptReadFile
libajantv2.so.17.0.1.0:poptResetContext
libajantv2.so.17.0.1.0:poptSaneFile
libajantv2.so.17.0.1.0:poptSaveBits
libajantv2.so.17.0.1.0:poptSaveInt
libajantv2.so.17.0.1.0:poptSaveLong
libajantv2.so.17.0.1.0:poptSaveLongLong
libajantv2.so.17.0.1.0:poptSaveShort
libajantv2.so.17.0.1.0:poptSaveString
libajantv2.so.17.0.1.0:poptSetExecPath
libajantv2.so.17.0.1.0:poptSetOtherOptionHelp
libajantv2.so.17.0.1.0:poptStrerror
libajantv2.so.17.0.1.0:poptStrippedArgv
libajantv2.so.17.0.1.0:poptStuffArgs
libajantv2.so.17.0.1.0:sqlite3_aggregate_context
libajantv2.so.17.0.1.0:sqlite3_aggregate_count
libajantv2.so.17.0.1.0:sqlite3_auto_extension
libajantv2.so.17.0.1.0:sqlite3_backup_finish
libajantv2.so.17.0.1.0:sqlite3_backup_init
libajantv2.so.17.0.1.0:sqlite3_backup_pagecount
libajantv2.so.17.0.1.0:sqlite3_backup_remaining
libajantv2.so.17.0.1.0:sqlite3_backup_step
libajantv2.so.17.0.1.0:sqlite3_bind_blob
libajantv2.so.17.0.1.0:sqlite3_bind_blob64
libajantv2.so.17.0.1.0:sqlite3_bind_double
libajantv2.so.17.0.1.0:sqlite3_bind_int
libajantv2.so.17.0.1.0:sqlite3_bind_int64
libajantv2.so.17.0.1.0:sqlite3_bind_null
libajantv2.so.17.0.1.0:sqlite3_bind_parameter_count
libajantv2.so.17.0.1.0:sqlite3_bind_parameter_index
libajantv2.so.17.0.1.0:sqlite3_bind_parameter_name
libajantv2.so.17.0.1.0:sqlite3_bind_pointer
libajantv2.so.17.0.1.0:sqlite3_bind_text
libajantv2.so.17.0.1.0:sqlite3_bind_text16
libajantv2.so.17.0.1.0:sqlite3_bind_text64
libajantv2.so.17.0.1.0:sqlite3_bind_value
libajantv2.so.17.0.1.0:sqlite3_bind_zeroblob
libajantv2.so.17.0.1.0:sqlite3_bind_zeroblob64
libajantv2.so.17.0.1.0:sqlite3_blob_bytes
libajantv2.so.17.0.1.0:sqlite3_blob_close
libajantv2.so.17.0.1.0:sqlite3_blob_open
libajantv2.so.17.0.1.0:sqlite3_blob_read
libajantv2.so.17.0.1.0:sqlite3_blob_reopen
libajantv2.so.17.0.1.0:sqlite3_blob_write
libajantv2.so.17.0.1.0:sqlite3_busy_handler
libajantv2.so.17.0.1.0:sqlite3_busy_timeout
libajantv2.so.17.0.1.0:sqlite3_cancel_auto_extension
libajantv2.so.17.0.1.0:sqlite3_changes
libajantv2.so.17.0.1.0:sqlite3_clear_bindings
libajantv2.so.17.0.1.0:sqlite3_close
libajantv2.so.17.0.1.0:sqlite3_close_v2
libajantv2.so.17.0.1.0:sqlite3_collation_needed
libajantv2.so.17.0.1.0:sqlite3_collation_needed16
libajantv2.so.17.0.1.0:sqlite3_column_blob
libajantv2.so.17.0.1.0:sqlite3_column_bytes
libajantv2.so.17.0.1.0:sqlite3_column_bytes16
libajantv2.so.17.0.1.0:sqlite3_column_count
libajantv2.so.17.0.1.0:sqlite3_column_decltype
libajantv2.so.17.0.1.0:sqlite3_column_decltype16
libajantv2.so.17.0.1.0:sqlite3_column_double
libajantv2.so.17.0.1.0:sqlite3_column_int
libajantv2.so.17.0.1.0:sqlite3_column_int64
libajantv2.so.17.0.1.0:sqlite3_column_name
libajantv2.so.17.0.1.0:sqlite3_column_name16
libajantv2.so.17.0.1.0:sqlite3_column_text
libajantv2.so.17.0.1.0:sqlite3_column_text16
libajantv2.so.17.0.1.0:sqlite3_column_type
libajantv2.so.17.0.1.0:sqlite3_column_value
libajantv2.so.17.0.1.0:sqlite3_commit_hook
libajantv2.so.17.0.1.0:sqlite3_compileoption_get
libajantv2.so.17.0.1.0:sqlite3_compileoption_used
libajantv2.so.17.0.1.0:sqlite3_complete
libajantv2.so.17.0.1.0:sqlite3_complete16
libajantv2.so.17.0.1.0:sqlite3_config
libajantv2.so.17.0.1.0:sqlite3_context_db_handle
libajantv2.so.17.0.1.0:sqlite3_create_collation
libajantv2.so.17.0.1.0:sqlite3_create_collation16
libajantv2.so.17.0.1.0:sqlite3_create_collation_v2
libajantv2.so.17.0.1.0:sqlite3_create_function
libajantv2.so.17.0.1.0:sqlite3_create_function16
libajantv2.so.17.0.1.0:sqlite3_create_function_v2
libajantv2.so.17.0.1.0:sqlite3_create_module
libajantv2.so.17.0.1.0:sqlite3_create_module_v2
libajantv2.so.17.0.1.0:sqlite3_data_count
libajantv2.so.17.0.1.0:sqlite3_db_cacheflush
libajantv2.so.17.0.1.0:sqlite3_db_config
libajantv2.so.17.0.1.0:sqlite3_db_filename
libajantv2.so.17.0.1.0:sqlite3_db_handle
libajantv2.so.17.0.1.0:sqlite3_db_mutex
libajantv2.so.17.0.1.0:sqlite3_db_readonly
libajantv2.so.17.0.1.0:sqlite3_db_release_memory
libajantv2.so.17.0.1.0:sqlite3_db_status
libajantv2.so.17.0.1.0:sqlite3_declare_vtab
libajantv2.so.17.0.1.0:sqlite3_enable_load_extension
libajantv2.so.17.0.1.0:sqlite3_enable_shared_cache
libajantv2.so.17.0.1.0:sqlite3_errcode
libajantv2.so.17.0.1.0:sqlite3_errmsg
libajantv2.so.17.0.1.0:sqlite3_errmsg16
libajantv2.so.17.0.1.0:sqlite3_errstr
libajantv2.so.17.0.1.0:sqlite3_exec
libajantv2.so.17.0.1.0:sqlite3_expanded_sql
libajantv2.so.17.0.1.0:sqlite3_expired
libajantv2.so.17.0.1.0:sqlite3_extended_errcode
libajantv2.so.17.0.1.0:sqlite3_extended_result_codes
libajantv2.so.17.0.1.0:sqlite3_file_control
libajantv2.so.17.0.1.0:sqlite3_finalize
libajantv2.so.17.0.1.0:sqlite3_free
libajantv2.so.17.0.1.0:sqlite3_free_table
libajantv2.so.17.0.1.0:sqlite3_get_autocommit
libajantv2.so.17.0.1.0:sqlite3_get_auxdata
libajantv2.so.17.0.1.0:sqlite3_get_table
libajantv2.so.17.0.1.0:sqlite3_global_recover
libajantv2.so.17.0.1.0:sqlite3_initialize
libajantv2.so.17.0.1.0:sqlite3_interrupt
libajantv2.so.17.0.1.0:sqlite3_keyword_check
libajantv2.so.17.0.1.0:sqlite3_keyword_count
libajantv2.so.17.0.1.0:sqlite3_keyword_name
libajantv2.so.17.0.1.0:sqlite3_last_insert_rowid
libajantv2.so.17.0.1.0:sqlite3_libversion
libajantv2.so.17.0.1.0:sqlite3_libversion_number
libajantv2.so.17.0.1.0:sqlite3_limit
libajantv2.so.17.0.1.0:sqlite3_load_extension
libajantv2.so.17.0.1.0:sqlite3_log
libajantv2.so.17.0.1.0:sqlite3_malloc
libajantv2.so.17.0.1.0:sqlite3_malloc64
libajantv2.so.17.0.1.0:sqlite3_memory_alarm
libajantv2.so.17.0.1.0:sqlite3_memory_highwater
libajantv2.so.17.0.1.0:sqlite3_memory_used
libajantv2.so.17.0.1.0:sqlite3_mprintf
libajantv2.so.17.0.1.0:sqlite3_msize
libajantv2.so.17.0.1.0:sqlite3_mutex_alloc
libajantv2.so.17.0.1.0:sqlite3_mutex_enter
libajantv2.so.17.0.1.0:sqlite3_mutex_free
libajantv2.so.17.0.1.0:sqlite3_mutex_leave
libajantv2.so.17.0.1.0:sqlite3_mutex_try
libajantv2.so.17.0.1.0:sqlite3_next_stmt
libajantv2.so.17.0.1.0:sqlite3_open
libajantv2.so.17.0.1.0:sqlite3_open16
libajantv2.so.17.0.1.0:sqlite3_open_v2
libajantv2.so.17.0.1.0:sqlite3_os_end
libajantv2.so.17.0.1.0:sqlite3_os_init
libajantv2.so.17.0.1.0:sqlite3_overload_function
libajantv2.so.17.0.1.0:sqlite3_prepare
libajantv2.so.17.0.1.0:sqlite3_prepare16
libajantv2.so.17.0.1.0:sqlite3_prepare16_v2
libajantv2.so.17.0.1.0:sqlite3_prepare16_v3
libajantv2.so.17.0.1.0:sqlite3_prepare_v2
libajantv2.so.17.0.1.0:sqlite3_prepare_v3
libajantv2.so.17.0.1.0:sqlite3_profile
libajantv2.so.17.0.1.0:sqlite3_progress_handler
libajantv2.so.17.0.1.0:sqlite3_randomness
libajantv2.so.17.0.1.0:sqlite3_realloc
libajantv2.so.17.0.1.0:sqlite3_realloc64
libajantv2.so.17.0.1.0:sqlite3_release_memory
libajantv2.so.17.0.1.0:sqlite3_reset
libajantv2.so.17.0.1.0:sqlite3_reset_auto_extension
libajantv2.so.17.0.1.0:sqlite3_result_blob
libajantv2.so.17.0.1.0:sqlite3_result_blob64
libajantv2.so.17.0.1.0:sqlite3_result_double
libajantv2.so.17.0.1.0:sqlite3_result_error
libajantv2.so.17.0.1.0:sqlite3_result_error16
libajantv2.so.17.0.1.0:sqlite3_result_error_code
libajantv2.so.17.0.1.0:sqlite3_result_error_nomem
libajantv2.so.17.0.1.0:sqlite3_result_error_toobig
libajantv2.so.17.0.1.0:sqlite3_result_int
libajantv2.so.17.0.1.0:sqlite3_result_int64
libajantv2.so.17.0.1.0:sqlite3_result_null
libajantv2.so.17.0.1.0:sqlite3_result_pointer
libajantv2.so.17.0.1.0:sqlite3_result_subtype
libajantv2.so.17.0.1.0:sqlite3_result_text
libajantv2.so.17.0.1.0:sqlite3_result_text16
libajantv2.so.17.0.1.0:sqlite3_result_text16be
libajantv2.so.17.0.1.0:sqlite3_result_text16le
libajantv2.so.17.0.1.0:sqlite3_result_text64
libajantv2.so.17.0.1.0:sqlite3_result_value
libajantv2.so.17.0.1.0:sqlite3_result_zeroblob
libajantv2.so.17.0.1.0:sqlite3_result_zeroblob64
libajantv2.so.17.0.1.0:sqlite3_rollback_hook
libajantv2.so.17.0.1.0:sqlite3_set_authorizer
libajantv2.so.17.0.1.0:sqlite3_set_auxdata
libajantv2.so.17.0.1.0:sqlite3_set_last_insert_rowid
libajantv2.so.17.0.1.0:sqlite3_shutdown
libajantv2.so.17.0.1.0:sqlite3_sleep
libajantv2.so.17.0.1.0:sqlite3_snprintf
libajantv2.so.17.0.1.0:sqlite3_soft_heap_limit
libajantv2.so.17.0.1.0:sqlite3_soft_heap_limit64
libajantv2.so.17.0.1.0:sqlite3_sourceid
libajantv2.so.17.0.1.0:sqlite3_sql
libajantv2.so.17.0.1.0:sqlite3_status
libajantv2.so.17.0.1.0:sqlite3_status64
libajantv2.so.17.0.1.0:sqlite3_step
libajantv2.so.17.0.1.0:sqlite3_stmt_busy
libajantv2.so.17.0.1.0:sqlite3_stmt_readonly
libajantv2.so.17.0.1.0:sqlite3_stmt_status
libajantv2.so.17.0.1.0:sqlite3_str_append
libajantv2.so.17.0.1.0:sqlite3_str_appendall
libajantv2.so.17.0.1.0:sqlite3_str_appendchar
libajantv2.so.17.0.1.0:sqlite3_str_appendf
libajantv2.so.17.0.1.0:sqlite3_str_errcode
libajantv2.so.17.0.1.0:sqlite3_str_finish
libajantv2.so.17.0.1.0:sqlite3_str_length
libajantv2.so.17.0.1.0:sqlite3_str_new
libajantv2.so.17.0.1.0:sqlite3_str_reset
libajantv2.so.17.0.1.0:sqlite3_str_value
libajantv2.so.17.0.1.0:sqlite3_str_vappendf
libajantv2.so.17.0.1.0:sqlite3_strglob
libajantv2.so.17.0.1.0:sqlite3_stricmp
libajantv2.so.17.0.1.0:sqlite3_strlike
libajantv2.so.17.0.1.0:sqlite3_strnicmp
libajantv2.so.17.0.1.0:sqlite3_system_errno
libajantv2.so.17.0.1.0:sqlite3_table_column_metadata
libajantv2.so.17.0.1.0:sqlite3_test_control
libajantv2.so.17.0.1.0:sqlite3_thread_cleanup
libajantv2.so.17.0.1.0:sqlite3_threadsafe
libajantv2.so.17.0.1.0:sqlite3_total_changes
libajantv2.so.17.0.1.0:sqlite3_trace
libajantv2.so.17.0.1.0:sqlite3_trace_v2
libajantv2.so.17.0.1.0:sqlite3_transfer_bindings
libajantv2.so.17.0.1.0:sqlite3_update_hook
libajantv2.so.17.0.1.0:sqlite3_uri_boolean
libajantv2.so.17.0.1.0:sqlite3_uri_int64
libajantv2.so.17.0.1.0:sqlite3_uri_parameter
libajantv2.so.17.0.1.0:sqlite3_user_data
libajantv2.so.17.0.1.0:sqlite3_value_blob
libajantv2.so.17.0.1.0:sqlite3_value_bytes
libajantv2.so.17.0.1.0:sqlite3_value_bytes16
libajantv2.so.17.0.1.0:sqlite3_value_double
libajantv2.so.17.0.1.0:sqlite3_value_dup
libajantv2.so.17.0.1.0:sqlite3_value_free
libajantv2.so.17.0.1.0:sqlite3_value_int
libajantv2.so.17.0.1.0:sqlite3_value_int64
libajantv2.so.17.0.1.0:sqlite3_value_nochange
libajantv2.so.17.0.1.0:sqlite3_value_numeric_type
libajantv2.so.17.0.1.0:sqlite3_value_pointer
libajantv2.so.17.0.1.0:sqlite3_value_subtype
libajantv2.so.17.0.1.0:sqlite3_value_text
libajantv2.so.17.0.1.0:sqlite3_value_text16
libajantv2.so.17.0.1.0:sqlite3_value_text16be
libajantv2.so.17.0.1.0:sqlite3_value_text16le
libajantv2.so.17.0.1.0:sqlite3_value_type
libajantv2.so.17.0.1.0:sqlite3_vfs_find
libajantv2.so.17.0.1.0:sqlite3_vfs_register
libajantv2.so.17.0.1.0:sqlite3_vfs_unregister
libajantv2.so.17.0.1.0:sqlite3_vmprintf
libajantv2.so.17.0.1.0:sqlite3_vsnprintf
libajantv2.so.17.0.1.0:sqlite3_vtab_collation
libajantv2.so.17.0.1.0:sqlite3_vtab_config
libajantv2.so.17.0.1.0:sqlite3_vtab_nochange
libajantv2.so.17.0.1.0:sqlite3_vtab_on_conflict
libajantv2.so.17.0.1.0:sqlite3_wal_autocheckpoint
libajantv2.so.17.0.1.0:sqlite3_wal_checkpoint
libajantv2.so.17.0.1.0:sqlite3_wal_checkpoint_v2
libajantv2.so.17.0.1.0:sqlite3_wal_hook
